
obj/kern/kernel:     file format elf32-i386


Disassembly of section .text:

00100000 <video_init>:
#include "video.h"
//tmphack
//#include<dev/serial.h>
void
video_init(void)
{
  100000:	56                   	push   %esi
  100001:	53                   	push   %ebx
  100002:	83 ec 04             	sub    $0x4,%esp
	uint16_t was;
	unsigned pos;

	/* Get a pointer to the memory-mapped text display buffer. */
	cp = (uint16_t*) CGA_BUF;
	was = *cp;
  100005:	0f b7 15 00 80 0b 00 	movzwl 0xb8000,%edx
	*cp = (uint16_t) 0xA55A;
  10000c:	66 c7 05 00 80 0b 00 	movw   $0xa55a,0xb8000
  100013:	5a a5 
	if (*cp != 0xA55A) {
  100015:	0f b7 05 00 80 0b 00 	movzwl 0xb8000,%eax
  10001c:	66 3d 5a a5          	cmp    $0xa55a,%ax
  100020:	0f 84 8c 00 00 00    	je     1000b2 <video_init+0xb2>
		cp = (uint16_t*) MONO_BUF;
		addr_6845 = MONO_BASE;
  100026:	c7 05 8c d4 96 00 b4 	movl   $0x3b4,0x96d48c
  10002d:	03 00 00 
		dprintf("addr_6845:%x\n",addr_6845);
  100030:	83 ec 08             	sub    $0x8,%esp
  100033:	68 b4 03 00 00       	push   $0x3b4
  100038:	68 a0 4b 10 00       	push   $0x104ba0
  10003d:	e8 48 1f 00 00       	call   101f8a <dprintf>
  100042:	83 c4 10             	add    $0x10,%esp
	/* Get a pointer to the memory-mapped text display buffer. */
	cp = (uint16_t*) CGA_BUF;
	was = *cp;
	*cp = (uint16_t) 0xA55A;
	if (*cp != 0xA55A) {
		cp = (uint16_t*) MONO_BUF;
  100045:	be 00 00 0b 00       	mov    $0xb0000,%esi
		addr_6845 = CGA_BASE;
		dprintf("addr_6845:%x\n",addr_6845);
	}
	
	/* Extract cursor location */
	outb(addr_6845, 14);
  10004a:	83 ec 08             	sub    $0x8,%esp
  10004d:	6a 0e                	push   $0xe
  10004f:	ff 35 8c d4 96 00    	pushl  0x96d48c
  100055:	e8 7a 27 00 00       	call   1027d4 <outb>
	pos = inb(addr_6845 + 1) << 8;
  10005a:	a1 8c d4 96 00       	mov    0x96d48c,%eax
  10005f:	83 c0 01             	add    $0x1,%eax
  100062:	89 04 24             	mov    %eax,(%esp)
  100065:	e8 52 27 00 00       	call   1027bc <inb>
  10006a:	0f b6 d8             	movzbl %al,%ebx
  10006d:	c1 e3 08             	shl    $0x8,%ebx
	outb(addr_6845, 15);
  100070:	83 c4 08             	add    $0x8,%esp
  100073:	6a 0f                	push   $0xf
  100075:	ff 35 8c d4 96 00    	pushl  0x96d48c
  10007b:	e8 54 27 00 00       	call   1027d4 <outb>
	pos |= inb(addr_6845 + 1);
  100080:	a1 8c d4 96 00       	mov    0x96d48c,%eax
  100085:	83 c0 01             	add    $0x1,%eax
  100088:	89 04 24             	mov    %eax,(%esp)
  10008b:	e8 2c 27 00 00       	call   1027bc <inb>
  100090:	0f b6 c0             	movzbl %al,%eax
  100093:	09 c3                	or     %eax,%ebx

	terminal.crt_buf = (uint16_t*) cp;
  100095:	89 35 80 d4 96 00    	mov    %esi,0x96d480
	terminal.crt_pos = pos;
  10009b:	66 89 1d 84 d4 96 00 	mov    %bx,0x96d484
	terminal.active_console = 0;
  1000a2:	c7 05 88 d4 96 00 00 	movl   $0x0,0x96d488
  1000a9:	00 00 00 
//  video_clear_screen();
}
  1000ac:	83 c4 14             	add    $0x14,%esp
  1000af:	5b                   	pop    %ebx
  1000b0:	5e                   	pop    %esi
  1000b1:	c3                   	ret    
	if (*cp != 0xA55A) {
		cp = (uint16_t*) MONO_BUF;
		addr_6845 = MONO_BASE;
		dprintf("addr_6845:%x\n",addr_6845);
	} else {
		*cp = was;
  1000b2:	66 89 15 00 80 0b 00 	mov    %dx,0xb8000
		addr_6845 = CGA_BASE;
  1000b9:	c7 05 8c d4 96 00 d4 	movl   $0x3d4,0x96d48c
  1000c0:	03 00 00 
		dprintf("addr_6845:%x\n",addr_6845);
  1000c3:	83 ec 08             	sub    $0x8,%esp
  1000c6:	68 d4 03 00 00       	push   $0x3d4
  1000cb:	68 a0 4b 10 00       	push   $0x104ba0
  1000d0:	e8 b5 1e 00 00       	call   101f8a <dprintf>
  1000d5:	83 c4 10             	add    $0x10,%esp
	volatile uint16_t *cp;
	uint16_t was;
	unsigned pos;

	/* Get a pointer to the memory-mapped text display buffer. */
	cp = (uint16_t*) CGA_BUF;
  1000d8:	be 00 80 0b 00       	mov    $0xb8000,%esi
  1000dd:	e9 68 ff ff ff       	jmp    10004a <video_init+0x4a>

001000e2 <video_putc>:
//  video_clear_screen();
}

void
video_putc(int c)
{
  1000e2:	83 ec 0c             	sub    $0xc,%esp
  1000e5:	8b 44 24 10          	mov    0x10(%esp),%eax

	// if no attribute given, then use black on white
	if (!(c & ~0xFF))
  1000e9:	a9 00 ff ff ff       	test   $0xffffff00,%eax
  1000ee:	75 03                	jne    1000f3 <video_putc+0x11>
		c |= 0x0700;
  1000f0:	80 cc 07             	or     $0x7,%ah

	switch (c & 0xff) {
  1000f3:	0f b6 d0             	movzbl %al,%edx
  1000f6:	83 fa 09             	cmp    $0x9,%edx
  1000f9:	0f 84 f2 00 00 00    	je     1001f1 <video_putc+0x10f>
  1000ff:	83 fa 09             	cmp    $0x9,%edx
  100102:	0f 8e 9d 00 00 00    	jle    1001a5 <video_putc+0xc3>
  100108:	83 fa 0a             	cmp    $0xa,%edx
  10010b:	0f 84 cb 00 00 00    	je     1001dc <video_putc+0xfa>
  100111:	83 fa 0d             	cmp    $0xd,%edx
  100114:	0f 85 19 01 00 00    	jne    100233 <video_putc+0x151>
		break;
	case '\n':
		terminal.crt_pos += CRT_COLS;
		/* fallthru */
	case '\r':
		terminal.crt_pos -= (terminal.crt_pos % CRT_COLS);
  10011a:	0f b7 05 84 d4 96 00 	movzwl 0x96d484,%eax
  100121:	69 c0 cd cc 00 00    	imul   $0xcccd,%eax,%eax
  100127:	c1 e8 10             	shr    $0x10,%eax
  10012a:	66 c1 e8 06          	shr    $0x6,%ax
  10012e:	8d 14 85 00 00 00 00 	lea    0x0(,%eax,4),%edx
  100135:	01 d0                	add    %edx,%eax
  100137:	c1 e0 04             	shl    $0x4,%eax
  10013a:	66 a3 84 d4 96 00    	mov    %ax,0x96d484
	default:
		terminal.crt_buf[terminal.crt_pos++] = c;		/* write the character */
		break;
	}

	if (terminal.crt_pos >= CRT_SIZE) {
  100140:	66 81 3d 84 d4 96 00 	cmpw   $0x7cf,0x96d484
  100147:	cf 07 
  100149:	0f 87 07 01 00 00    	ja     100256 <video_putc+0x174>
		terminal.crt_pos -= CRT_COLS;
	}


	/* move that little blinky thing */
	outb(addr_6845, 14);
  10014f:	83 ec 08             	sub    $0x8,%esp
  100152:	6a 0e                	push   $0xe
  100154:	ff 35 8c d4 96 00    	pushl  0x96d48c
  10015a:	e8 75 26 00 00       	call   1027d4 <outb>
	outb(addr_6845 + 1, terminal.crt_pos >> 8);
  10015f:	a1 8c d4 96 00       	mov    0x96d48c,%eax
  100164:	83 c0 01             	add    $0x1,%eax
  100167:	83 c4 08             	add    $0x8,%esp
  10016a:	0f b6 15 85 d4 96 00 	movzbl 0x96d485,%edx
  100171:	52                   	push   %edx
  100172:	50                   	push   %eax
  100173:	e8 5c 26 00 00       	call   1027d4 <outb>
	outb(addr_6845, 15);
  100178:	83 c4 08             	add    $0x8,%esp
  10017b:	6a 0f                	push   $0xf
  10017d:	ff 35 8c d4 96 00    	pushl  0x96d48c
  100183:	e8 4c 26 00 00       	call   1027d4 <outb>
	outb(addr_6845 + 1, terminal.crt_pos);
  100188:	a1 8c d4 96 00       	mov    0x96d48c,%eax
  10018d:	83 c0 01             	add    $0x1,%eax
  100190:	83 c4 08             	add    $0x8,%esp
  100193:	0f b6 15 84 d4 96 00 	movzbl 0x96d484,%edx
  10019a:	52                   	push   %edx
  10019b:	50                   	push   %eax
  10019c:	e8 33 26 00 00       	call   1027d4 <outb>
       	  }
       outb(COM1+COM_TX, c);
       tmpcount++;
	  }
	*/
}
  1001a1:	83 c4 1c             	add    $0x1c,%esp
  1001a4:	c3                   	ret    

	// if no attribute given, then use black on white
	if (!(c & ~0xFF))
		c |= 0x0700;

	switch (c & 0xff) {
  1001a5:	83 fa 08             	cmp    $0x8,%edx
  1001a8:	0f 85 85 00 00 00    	jne    100233 <video_putc+0x151>
	case '\b':
		if (terminal.crt_pos > 0) {
  1001ae:	0f b7 15 84 d4 96 00 	movzwl 0x96d484,%edx
  1001b5:	66 85 d2             	test   %dx,%dx
  1001b8:	74 86                	je     100140 <video_putc+0x5e>
			terminal.crt_pos--;
  1001ba:	83 ea 01             	sub    $0x1,%edx
  1001bd:	66 89 15 84 d4 96 00 	mov    %dx,0x96d484
			terminal.crt_buf[terminal.crt_pos] = (c & ~0xff) | ' ';
  1001c4:	0f b7 d2             	movzwl %dx,%edx
  1001c7:	01 d2                	add    %edx,%edx
  1001c9:	03 15 80 d4 96 00    	add    0x96d480,%edx
  1001cf:	b0 00                	mov    $0x0,%al
  1001d1:	83 c8 20             	or     $0x20,%eax
  1001d4:	66 89 02             	mov    %ax,(%edx)
  1001d7:	e9 64 ff ff ff       	jmp    100140 <video_putc+0x5e>
		}
		break;
	case '\n':
		terminal.crt_pos += CRT_COLS;
  1001dc:	0f b7 05 84 d4 96 00 	movzwl 0x96d484,%eax
  1001e3:	83 c0 50             	add    $0x50,%eax
  1001e6:	66 a3 84 d4 96 00    	mov    %ax,0x96d484
  1001ec:	e9 29 ff ff ff       	jmp    10011a <video_putc+0x38>
		/* fallthru */
	case '\r':
		terminal.crt_pos -= (terminal.crt_pos % CRT_COLS);
		break;
	case '\t':
		video_putc(' ');
  1001f1:	83 ec 0c             	sub    $0xc,%esp
  1001f4:	6a 20                	push   $0x20
  1001f6:	e8 e7 fe ff ff       	call   1000e2 <video_putc>
		video_putc(' ');
  1001fb:	c7 04 24 20 00 00 00 	movl   $0x20,(%esp)
  100202:	e8 db fe ff ff       	call   1000e2 <video_putc>
		video_putc(' ');
  100207:	c7 04 24 20 00 00 00 	movl   $0x20,(%esp)
  10020e:	e8 cf fe ff ff       	call   1000e2 <video_putc>
		video_putc(' ');
  100213:	c7 04 24 20 00 00 00 	movl   $0x20,(%esp)
  10021a:	e8 c3 fe ff ff       	call   1000e2 <video_putc>
		video_putc(' ');
  10021f:	c7 04 24 20 00 00 00 	movl   $0x20,(%esp)
  100226:	e8 b7 fe ff ff       	call   1000e2 <video_putc>
		break;
  10022b:	83 c4 10             	add    $0x10,%esp
  10022e:	e9 0d ff ff ff       	jmp    100140 <video_putc+0x5e>
	default:
		terminal.crt_buf[terminal.crt_pos++] = c;		/* write the character */
  100233:	0f b7 15 84 d4 96 00 	movzwl 0x96d484,%edx
  10023a:	8d 4a 01             	lea    0x1(%edx),%ecx
  10023d:	66 89 0d 84 d4 96 00 	mov    %cx,0x96d484
  100244:	0f b7 d2             	movzwl %dx,%edx
  100247:	8b 0d 80 d4 96 00    	mov    0x96d480,%ecx
  10024d:	66 89 04 51          	mov    %ax,(%ecx,%edx,2)
		break;
  100251:	e9 ea fe ff ff       	jmp    100140 <video_putc+0x5e>
	}

	if (terminal.crt_pos >= CRT_SIZE) {
		int i;
		memmove(terminal.crt_buf, terminal.crt_buf + CRT_COLS,
  100256:	a1 80 d4 96 00       	mov    0x96d480,%eax
  10025b:	8d 90 a0 00 00 00    	lea    0xa0(%eax),%edx
  100261:	83 ec 04             	sub    $0x4,%esp
  100264:	68 00 0f 00 00       	push   $0xf00
  100269:	52                   	push   %edx
  10026a:	50                   	push   %eax
  10026b:	e8 14 1a 00 00       	call   101c84 <memmove>
			(CRT_SIZE - CRT_COLS) * sizeof(uint16_t));
		for (i = CRT_SIZE - CRT_COLS; i < CRT_SIZE; i++)
  100270:	83 c4 10             	add    $0x10,%esp
  100273:	b8 80 07 00 00       	mov    $0x780,%eax
  100278:	eb 11                	jmp    10028b <video_putc+0x1a9>
			terminal.crt_buf[i] = 0x0700 | ' ';
  10027a:	8d 14 00             	lea    (%eax,%eax,1),%edx
  10027d:	03 15 80 d4 96 00    	add    0x96d480,%edx
  100283:	66 c7 02 20 07       	movw   $0x720,(%edx)

	if (terminal.crt_pos >= CRT_SIZE) {
		int i;
		memmove(terminal.crt_buf, terminal.crt_buf + CRT_COLS,
			(CRT_SIZE - CRT_COLS) * sizeof(uint16_t));
		for (i = CRT_SIZE - CRT_COLS; i < CRT_SIZE; i++)
  100288:	83 c0 01             	add    $0x1,%eax
  10028b:	3d cf 07 00 00       	cmp    $0x7cf,%eax
  100290:	7e e8                	jle    10027a <video_putc+0x198>
			terminal.crt_buf[i] = 0x0700 | ' ';
		terminal.crt_pos -= CRT_COLS;
  100292:	0f b7 05 84 d4 96 00 	movzwl 0x96d484,%eax
  100299:	83 e8 50             	sub    $0x50,%eax
  10029c:	66 a3 84 d4 96 00    	mov    %ax,0x96d484
  1002a2:	e9 a8 fe ff ff       	jmp    10014f <video_putc+0x6d>

001002a7 <video_set_cursor>:
	*/
}

void
video_set_cursor (int x, int y)
{
  1002a7:	8b 44 24 04          	mov    0x4(%esp),%eax
    terminal.crt_pos = x * CRT_COLS + y;
  1002ab:	8d 14 85 00 00 00 00 	lea    0x0(,%eax,4),%edx
  1002b2:	01 c2                	add    %eax,%edx
  1002b4:	89 d0                	mov    %edx,%eax
  1002b6:	c1 e0 04             	shl    $0x4,%eax
  1002b9:	66 03 44 24 08       	add    0x8(%esp),%ax
  1002be:	66 a3 84 d4 96 00    	mov    %ax,0x96d484
  1002c4:	c3                   	ret    

001002c5 <video_clear_screen>:

void
video_clear_screen ()
{
    int i;
    for (i = 0; i < CRT_SIZE; i++)
  1002c5:	b8 00 00 00 00       	mov    $0x0,%eax
  1002ca:	eb 11                	jmp    1002dd <video_clear_screen+0x18>
    {
        terminal.crt_buf[i] = ' ';
  1002cc:	8d 14 00             	lea    (%eax,%eax,1),%edx
  1002cf:	03 15 80 d4 96 00    	add    0x96d480,%edx
  1002d5:	66 c7 02 20 00       	movw   $0x20,(%edx)

void
video_clear_screen ()
{
    int i;
    for (i = 0; i < CRT_SIZE; i++)
  1002da:	83 c0 01             	add    $0x1,%eax
  1002dd:	3d cf 07 00 00       	cmp    $0x7cf,%eax
  1002e2:	7e e8                	jle    1002cc <video_clear_screen+0x7>
    {
        terminal.crt_buf[i] = ' ';
    }
}
  1002e4:	f3 c3                	repz ret 

001002e6 <cons_init>:
	uint32_t rpos, wpos;
} cons;

void
cons_init()
{
  1002e6:	83 ec 10             	sub    $0x10,%esp
	memset(&cons, 0x0, sizeof(cons));
  1002e9:	68 08 02 00 00       	push   $0x208
  1002ee:	6a 00                	push   $0x0
  1002f0:	68 a0 d4 96 00       	push   $0x96d4a0
  1002f5:	e8 41 19 00 00       	call   101c3b <memset>
	serial_init();
  1002fa:	e8 c2 02 00 00       	call   1005c1 <serial_init>
	video_init();
  1002ff:	e8 fc fc ff ff       	call   100000 <video_init>
}
  100304:	83 c4 1c             	add    $0x1c,%esp
  100307:	c3                   	ret    

00100308 <cons_intr>:

void
cons_intr(int (*proc)(void))
{
  100308:	53                   	push   %ebx
  100309:	83 ec 08             	sub    $0x8,%esp
  10030c:	8b 5c 24 10          	mov    0x10(%esp),%ebx
	int c;

	while ((c = (*proc)()) != -1) {
  100310:	ff d3                	call   *%ebx
  100312:	83 f8 ff             	cmp    $0xffffffff,%eax
  100315:	74 2d                	je     100344 <cons_intr+0x3c>
		if (c == 0)
  100317:	85 c0                	test   %eax,%eax
  100319:	74 f5                	je     100310 <cons_intr+0x8>
			continue;
		cons.buf[cons.wpos++] = c;
  10031b:	8b 0d a4 d6 96 00    	mov    0x96d6a4,%ecx
  100321:	8d 51 01             	lea    0x1(%ecx),%edx
  100324:	89 15 a4 d6 96 00    	mov    %edx,0x96d6a4
  10032a:	88 81 a0 d4 96 00    	mov    %al,0x96d4a0(%ecx)
		if (cons.wpos == CONSOLE_BUFFER_SIZE)
  100330:	81 fa 00 02 00 00    	cmp    $0x200,%edx
  100336:	75 d8                	jne    100310 <cons_intr+0x8>
			cons.wpos = 0;
  100338:	c7 05 a4 d6 96 00 00 	movl   $0x0,0x96d6a4
  10033f:	00 00 00 
  100342:	eb cc                	jmp    100310 <cons_intr+0x8>
	}
}
  100344:	83 c4 08             	add    $0x8,%esp
  100347:	5b                   	pop    %ebx
  100348:	c3                   	ret    

00100349 <cons_getc>:

char
cons_getc(void)
{
  100349:	83 ec 0c             	sub    $0xc,%esp
  int c;

  // poll for any pending input characters,
  // so that this function works even when interrupts are disabled
  // (e.g., when called from the kernel monitor).
  serial_intr();
  10034c:	e8 e5 01 00 00       	call   100536 <serial_intr>
  keyboard_intr();
  100351:	e8 3f 04 00 00       	call   100795 <keyboard_intr>

  // grab the next character from the input buffer.
  if (cons.rpos != cons.wpos) {
  100356:	a1 a0 d6 96 00       	mov    0x96d6a0,%eax
  10035b:	3b 05 a4 d6 96 00    	cmp    0x96d6a4,%eax
  100361:	74 28                	je     10038b <cons_getc+0x42>
    c = cons.buf[cons.rpos++];
  100363:	8d 50 01             	lea    0x1(%eax),%edx
  100366:	89 15 a0 d6 96 00    	mov    %edx,0x96d6a0
  10036c:	0f b6 80 a0 d4 96 00 	movzbl 0x96d4a0(%eax),%eax
    if (cons.rpos == CONSOLE_BUFFER_SIZE)
  100373:	81 fa 00 02 00 00    	cmp    $0x200,%edx
  100379:	74 04                	je     10037f <cons_getc+0x36>
      cons.rpos = 0;
    return c;
  }
  return 0;
}
  10037b:	83 c4 0c             	add    $0xc,%esp
  10037e:	c3                   	ret    

  // grab the next character from the input buffer.
  if (cons.rpos != cons.wpos) {
    c = cons.buf[cons.rpos++];
    if (cons.rpos == CONSOLE_BUFFER_SIZE)
      cons.rpos = 0;
  10037f:	c7 05 a0 d6 96 00 00 	movl   $0x0,0x96d6a0
  100386:	00 00 00 
  100389:	eb f0                	jmp    10037b <cons_getc+0x32>
    return c;
  }
  return 0;
  10038b:	b8 00 00 00 00       	mov    $0x0,%eax
  100390:	eb e9                	jmp    10037b <cons_getc+0x32>

00100392 <cons_putc>:
}

void
cons_putc(char c)
{
  100392:	53                   	push   %ebx
  100393:	83 ec 14             	sub    $0x14,%esp
	serial_putc(c);
  100396:	0f be 5c 24 1c       	movsbl 0x1c(%esp),%ebx
  10039b:	53                   	push   %ebx
  10039c:	e8 b2 01 00 00       	call   100553 <serial_putc>
  video_putc(c);
  1003a1:	89 1c 24             	mov    %ebx,(%esp)
  1003a4:	e8 39 fd ff ff       	call   1000e2 <video_putc>
}
  1003a9:	83 c4 18             	add    $0x18,%esp
  1003ac:	5b                   	pop    %ebx
  1003ad:	c3                   	ret    

001003ae <getchar>:

char
getchar(void)
{
  1003ae:	83 ec 0c             	sub    $0xc,%esp
  char c;

  while ((c = cons_getc()) == 0)
  1003b1:	e8 93 ff ff ff       	call   100349 <cons_getc>
  1003b6:	84 c0                	test   %al,%al
  1003b8:	74 f7                	je     1003b1 <getchar+0x3>
    /* do nothing */;
  return c;
}
  1003ba:	83 c4 0c             	add    $0xc,%esp
  1003bd:	c3                   	ret    

001003be <putchar>:

void
putchar(char c)
{
  1003be:	83 ec 18             	sub    $0x18,%esp
  cons_putc(c);
  1003c1:	0f be 44 24 1c       	movsbl 0x1c(%esp),%eax
  1003c6:	50                   	push   %eax
  1003c7:	e8 c6 ff ff ff       	call   100392 <cons_putc>
}
  1003cc:	83 c4 1c             	add    $0x1c,%esp
  1003cf:	c3                   	ret    

001003d0 <readline>:

char *
readline(const char *prompt)
{
  1003d0:	56                   	push   %esi
  1003d1:	53                   	push   %ebx
  1003d2:	83 ec 04             	sub    $0x4,%esp
  1003d5:	8b 44 24 10          	mov    0x10(%esp),%eax
  int i;
  char c;

  if (prompt != NULL)
  1003d9:	85 c0                	test   %eax,%eax
  1003db:	74 11                	je     1003ee <readline+0x1e>
    dprintf("%s", prompt);
  1003dd:	83 ec 08             	sub    $0x8,%esp
  1003e0:	50                   	push   %eax
  1003e1:	68 ae 4b 10 00       	push   $0x104bae
  1003e6:	e8 9f 1b 00 00       	call   101f8a <dprintf>
  1003eb:	83 c4 10             	add    $0x10,%esp
    } else if ((c == '\b' || c == '\x7f') && i > 0) {
      putchar('\b');
      i--;
    } else if (c >= ' ' && i < BUFLEN-1) {
      putchar(c);
      linebuf[i++] = c;
  1003ee:	be 00 00 00 00       	mov    $0x0,%esi
  1003f3:	eb 42                	jmp    100437 <readline+0x67>

  i = 0;
  while (1) {
    c = getchar();
    if (c < 0) {
      dprintf("read error: %e\n", c);
  1003f5:	83 ec 08             	sub    $0x8,%esp
  1003f8:	0f be d8             	movsbl %al,%ebx
  1003fb:	53                   	push   %ebx
  1003fc:	68 b1 4b 10 00       	push   $0x104bb1
  100401:	e8 84 1b 00 00       	call   101f8a <dprintf>
      return NULL;
  100406:	83 c4 10             	add    $0x10,%esp
  100409:	b8 00 00 00 00       	mov    $0x0,%eax
      putchar('\n');
      linebuf[i] = 0;
      return linebuf;
    }
  }
}
  10040e:	83 c4 04             	add    $0x4,%esp
  100411:	5b                   	pop    %ebx
  100412:	5e                   	pop    %esi
  100413:	c3                   	ret    
      dprintf("read error: %e\n", c);
      return NULL;
    } else if ((c == '\b' || c == '\x7f') && i > 0) {
      putchar('\b');
      i--;
    } else if (c >= ' ' && i < BUFLEN-1) {
  100414:	80 fb 1f             	cmp    $0x1f,%bl
  100417:	0f 9f c2             	setg   %dl
  10041a:	81 fe fe 03 00 00    	cmp    $0x3fe,%esi
  100420:	0f 9e c0             	setle  %al
  100423:	84 c2                	test   %al,%dl
  100425:	75 3f                	jne    100466 <readline+0x96>
      putchar(c);
      linebuf[i++] = c;
    } else if (c == '\n' || c == '\r') {
  100427:	80 fb 0a             	cmp    $0xa,%bl
  10042a:	0f 94 c2             	sete   %dl
  10042d:	80 fb 0d             	cmp    $0xd,%bl
  100430:	0f 94 c0             	sete   %al
  100433:	08 c2                	or     %al,%dl
  100435:	75 49                	jne    100480 <readline+0xb0>
  if (prompt != NULL)
    dprintf("%s", prompt);

  i = 0;
  while (1) {
    c = getchar();
  100437:	e8 72 ff ff ff       	call   1003ae <getchar>
  10043c:	89 c3                	mov    %eax,%ebx
    if (c < 0) {
  10043e:	84 c0                	test   %al,%al
  100440:	78 b3                	js     1003f5 <readline+0x25>
      dprintf("read error: %e\n", c);
      return NULL;
    } else if ((c == '\b' || c == '\x7f') && i > 0) {
  100442:	3c 08                	cmp    $0x8,%al
  100444:	0f 94 c2             	sete   %dl
  100447:	3c 7f                	cmp    $0x7f,%al
  100449:	0f 94 c0             	sete   %al
  10044c:	08 c2                	or     %al,%dl
  10044e:	74 c4                	je     100414 <readline+0x44>
  100450:	85 f6                	test   %esi,%esi
  100452:	7e c0                	jle    100414 <readline+0x44>
      putchar('\b');
  100454:	83 ec 0c             	sub    $0xc,%esp
  100457:	6a 08                	push   $0x8
  100459:	e8 60 ff ff ff       	call   1003be <putchar>
      i--;
  10045e:	83 ee 01             	sub    $0x1,%esi
  100461:	83 c4 10             	add    $0x10,%esp
  100464:	eb d1                	jmp    100437 <readline+0x67>
    } else if (c >= ' ' && i < BUFLEN-1) {
      putchar(c);
  100466:	83 ec 0c             	sub    $0xc,%esp
  100469:	0f be c3             	movsbl %bl,%eax
  10046c:	50                   	push   %eax
  10046d:	e8 4c ff ff ff       	call   1003be <putchar>
      linebuf[i++] = c;
  100472:	88 9e 00 c0 12 00    	mov    %bl,0x12c000(%esi)
  100478:	83 c4 10             	add    $0x10,%esp
  10047b:	8d 76 01             	lea    0x1(%esi),%esi
  10047e:	eb b7                	jmp    100437 <readline+0x67>
    } else if (c == '\n' || c == '\r') {
      putchar('\n');
  100480:	83 ec 0c             	sub    $0xc,%esp
  100483:	6a 0a                	push   $0xa
  100485:	e8 34 ff ff ff       	call   1003be <putchar>
      linebuf[i] = 0;
  10048a:	c6 86 00 c0 12 00 00 	movb   $0x0,0x12c000(%esi)
      return linebuf;
  100491:	83 c4 10             	add    $0x10,%esp
  100494:	b8 00 c0 12 00       	mov    $0x12c000,%eax
  100499:	e9 70 ff ff ff       	jmp    10040e <readline+0x3e>

0010049e <serial_proc_data>:
	inb(0x84);
}

static int
serial_proc_data(void)
{
  10049e:	83 ec 18             	sub    $0x18,%esp
	if (!(inb(COM1+COM_LSR) & COM_LSR_DATA))
  1004a1:	68 fd 03 00 00       	push   $0x3fd
  1004a6:	e8 11 23 00 00       	call   1027bc <inb>
  1004ab:	83 c4 10             	add    $0x10,%esp
  1004ae:	a8 01                	test   $0x1,%al
  1004b0:	74 17                	je     1004c9 <serial_proc_data+0x2b>
		return -1;
	return inb(COM1+COM_RX);
  1004b2:	83 ec 0c             	sub    $0xc,%esp
  1004b5:	68 f8 03 00 00       	push   $0x3f8
  1004ba:	e8 fd 22 00 00       	call   1027bc <inb>
  1004bf:	0f b6 c0             	movzbl %al,%eax
  1004c2:	83 c4 10             	add    $0x10,%esp
}
  1004c5:	83 c4 0c             	add    $0xc,%esp
  1004c8:	c3                   	ret    

static int
serial_proc_data(void)
{
	if (!(inb(COM1+COM_LSR) & COM_LSR_DATA))
		return -1;
  1004c9:	b8 ff ff ff ff       	mov    $0xffffffff,%eax
  1004ce:	eb f5                	jmp    1004c5 <serial_proc_data+0x27>

001004d0 <delay>:
bool serial_exists;

// Stupid I/O delay routine necessitated by historical PC design flaws
static void
delay(void)
{
  1004d0:	83 ec 18             	sub    $0x18,%esp
	inb(0x84);
  1004d3:	68 84 00 00 00       	push   $0x84
  1004d8:	e8 df 22 00 00       	call   1027bc <inb>
	inb(0x84);
  1004dd:	c7 04 24 84 00 00 00 	movl   $0x84,(%esp)
  1004e4:	e8 d3 22 00 00       	call   1027bc <inb>
	inb(0x84);
  1004e9:	c7 04 24 84 00 00 00 	movl   $0x84,(%esp)
  1004f0:	e8 c7 22 00 00       	call   1027bc <inb>
	inb(0x84);
  1004f5:	c7 04 24 84 00 00 00 	movl   $0x84,(%esp)
  1004fc:	e8 bb 22 00 00       	call   1027bc <inb>
}
  100501:	83 c4 1c             	add    $0x1c,%esp
  100504:	c3                   	ret    

00100505 <serial_reformatnewline>:
	int nl = '\n';
	/* POSIX requires newline on the serial line to
	 * be a CR-LF pair. Without this, you get a malformed output
	 * with clients like minicom or screen
	 */
	if (c == nl) {
  100505:	83 f8 0a             	cmp    $0xa,%eax
  100508:	74 06                	je     100510 <serial_reformatnewline+0xb>
		outb(p, cr);
		outb(p, nl);
		return 1;
	}
	else
		return 0;
  10050a:	b8 00 00 00 00       	mov    $0x0,%eax
  10050f:	c3                   	ret    
		cons_intr(serial_proc_data);
}

static int
serial_reformatnewline(int c, int p)
{
  100510:	53                   	push   %ebx
  100511:	83 ec 10             	sub    $0x10,%esp
  100514:	89 d3                	mov    %edx,%ebx
	/* POSIX requires newline on the serial line to
	 * be a CR-LF pair. Without this, you get a malformed output
	 * with clients like minicom or screen
	 */
	if (c == nl) {
		outb(p, cr);
  100516:	6a 0d                	push   $0xd
  100518:	52                   	push   %edx
  100519:	e8 b6 22 00 00       	call   1027d4 <outb>
		outb(p, nl);
  10051e:	83 c4 08             	add    $0x8,%esp
  100521:	6a 0a                	push   $0xa
  100523:	53                   	push   %ebx
  100524:	e8 ab 22 00 00       	call   1027d4 <outb>
		return 1;
  100529:	83 c4 10             	add    $0x10,%esp
  10052c:	b8 01 00 00 00       	mov    $0x1,%eax
	}
	else
		return 0;
}
  100531:	83 c4 08             	add    $0x8,%esp
  100534:	5b                   	pop    %ebx
  100535:	c3                   	ret    

00100536 <serial_intr>:
}

void
serial_intr(void)
{
	if (serial_exists)
  100536:	80 3d a8 d6 96 00 00 	cmpb   $0x0,0x96d6a8
  10053d:	75 02                	jne    100541 <serial_intr+0xb>
		cons_intr(serial_proc_data);
}
  10053f:	f3 c3                	repz ret 
	return inb(COM1+COM_RX);
}

void
serial_intr(void)
{
  100541:	83 ec 18             	sub    $0x18,%esp
	if (serial_exists)
		cons_intr(serial_proc_data);
  100544:	68 9e 04 10 00       	push   $0x10049e
  100549:	e8 ba fd ff ff       	call   100308 <cons_intr>
}
  10054e:	83 c4 1c             	add    $0x1c,%esp
  100551:	eb ec                	jmp    10053f <serial_intr+0x9>

00100553 <serial_putc>:
		return 0;
}

void
serial_putc(char c)
{
  100553:	56                   	push   %esi
  100554:	53                   	push   %ebx
  100555:	83 ec 04             	sub    $0x4,%esp
  100558:	8b 74 24 10          	mov    0x10(%esp),%esi
	if (!serial_exists)
  10055c:	80 3d a8 d6 96 00 00 	cmpb   $0x0,0x96d6a8
  100563:	74 3e                	je     1005a3 <serial_putc+0x50>
  100565:	bb 00 00 00 00       	mov    $0x0,%ebx
		return;

	int i;
	for (i = 0;
	     !(inb(COM1 + COM_LSR) & COM_LSR_TXRDY) && i < 12800;
  10056a:	83 ec 0c             	sub    $0xc,%esp
  10056d:	68 fd 03 00 00       	push   $0x3fd
  100572:	e8 45 22 00 00       	call   1027bc <inb>
{
	if (!serial_exists)
		return;

	int i;
	for (i = 0;
  100577:	83 c4 10             	add    $0x10,%esp
  10057a:	a8 20                	test   $0x20,%al
  10057c:	75 12                	jne    100590 <serial_putc+0x3d>
	     !(inb(COM1 + COM_LSR) & COM_LSR_TXRDY) && i < 12800;
  10057e:	81 fb ff 31 00 00    	cmp    $0x31ff,%ebx
  100584:	7f 0a                	jg     100590 <serial_putc+0x3d>
	     i++)
		delay();
  100586:	e8 45 ff ff ff       	call   1004d0 <delay>
		return;

	int i;
	for (i = 0;
	     !(inb(COM1 + COM_LSR) & COM_LSR_TXRDY) && i < 12800;
	     i++)
  10058b:	83 c3 01             	add    $0x1,%ebx
  10058e:	eb da                	jmp    10056a <serial_putc+0x17>
		delay();

	if (!serial_reformatnewline(c, COM1 + COM_TX))
  100590:	89 f0                	mov    %esi,%eax
  100592:	0f be c0             	movsbl %al,%eax
  100595:	ba f8 03 00 00       	mov    $0x3f8,%edx
  10059a:	e8 66 ff ff ff       	call   100505 <serial_reformatnewline>
  10059f:	85 c0                	test   %eax,%eax
  1005a1:	74 06                	je     1005a9 <serial_putc+0x56>
		outb(COM1 + COM_TX, c);
}
  1005a3:	83 c4 04             	add    $0x4,%esp
  1005a6:	5b                   	pop    %ebx
  1005a7:	5e                   	pop    %esi
  1005a8:	c3                   	ret    
	     !(inb(COM1 + COM_LSR) & COM_LSR_TXRDY) && i < 12800;
	     i++)
		delay();

	if (!serial_reformatnewline(c, COM1 + COM_TX))
		outb(COM1 + COM_TX, c);
  1005a9:	83 ec 08             	sub    $0x8,%esp
  1005ac:	89 f0                	mov    %esi,%eax
  1005ae:	0f b6 f0             	movzbl %al,%esi
  1005b1:	56                   	push   %esi
  1005b2:	68 f8 03 00 00       	push   $0x3f8
  1005b7:	e8 18 22 00 00       	call   1027d4 <outb>
  1005bc:	83 c4 10             	add    $0x10,%esp
  1005bf:	eb e2                	jmp    1005a3 <serial_putc+0x50>

001005c1 <serial_init>:
}

void
serial_init(void)
{
  1005c1:	83 ec 14             	sub    $0x14,%esp
	/* turn off interrupt */
	outb(COM1 + COM_IER, 0);
  1005c4:	6a 00                	push   $0x0
  1005c6:	68 f9 03 00 00       	push   $0x3f9
  1005cb:	e8 04 22 00 00       	call   1027d4 <outb>

	/* set DLAB */
	outb(COM1 + COM_LCR, COM_LCR_DLAB);
  1005d0:	83 c4 08             	add    $0x8,%esp
  1005d3:	68 80 00 00 00       	push   $0x80
  1005d8:	68 fb 03 00 00       	push   $0x3fb
  1005dd:	e8 f2 21 00 00       	call   1027d4 <outb>

	/* set baud rate */
	outb(COM1 + COM_DLL, 0x0001 & 0xff);
  1005e2:	83 c4 08             	add    $0x8,%esp
  1005e5:	6a 01                	push   $0x1
  1005e7:	68 f8 03 00 00       	push   $0x3f8
  1005ec:	e8 e3 21 00 00       	call   1027d4 <outb>
	outb(COM1 + COM_DLM, 0x0001 >> 8);
  1005f1:	83 c4 08             	add    $0x8,%esp
  1005f4:	6a 00                	push   $0x0
  1005f6:	68 f9 03 00 00       	push   $0x3f9
  1005fb:	e8 d4 21 00 00       	call   1027d4 <outb>

	/* Set the line status.  */
	outb(COM1 + COM_LCR, COM_LCR_WLEN8 & ~COM_LCR_DLAB);
  100600:	83 c4 08             	add    $0x8,%esp
  100603:	6a 03                	push   $0x3
  100605:	68 fb 03 00 00       	push   $0x3fb
  10060a:	e8 c5 21 00 00       	call   1027d4 <outb>

	/* Enable the FIFO.  */
	outb(COM1 + COM_FCR, 0xc7);
  10060f:	83 c4 08             	add    $0x8,%esp
  100612:	68 c7 00 00 00       	push   $0xc7
  100617:	68 fa 03 00 00       	push   $0x3fa
  10061c:	e8 b3 21 00 00       	call   1027d4 <outb>

	/* Turn on DTR, RTS, and OUT2.  */
	outb(COM1 + COM_MCR, 0x0b);
  100621:	83 c4 08             	add    $0x8,%esp
  100624:	6a 0b                	push   $0xb
  100626:	68 fc 03 00 00       	push   $0x3fc
  10062b:	e8 a4 21 00 00       	call   1027d4 <outb>

	// Clear any preexisting overrun indications and interrupts
	// Serial COM1 doesn't exist if COM_LSR returns 0xFF
	serial_exists = (inb(COM1+COM_LSR) != 0xFF);
  100630:	c7 04 24 fd 03 00 00 	movl   $0x3fd,(%esp)
  100637:	e8 80 21 00 00       	call   1027bc <inb>
  10063c:	3c ff                	cmp    $0xff,%al
  10063e:	0f 95 05 a8 d6 96 00 	setne  0x96d6a8
	(void) inb(COM1+COM_IIR);
  100645:	c7 04 24 fa 03 00 00 	movl   $0x3fa,(%esp)
  10064c:	e8 6b 21 00 00       	call   1027bc <inb>
	(void) inb(COM1+COM_RX);
  100651:	c7 04 24 f8 03 00 00 	movl   $0x3f8,(%esp)
  100658:	e8 5f 21 00 00       	call   1027bc <inb>
}
  10065d:	83 c4 1c             	add    $0x1c,%esp
  100660:	c3                   	ret    

00100661 <serial_intenable>:

void
serial_intenable(void)
{
	if (serial_exists) {
  100661:	80 3d a8 d6 96 00 00 	cmpb   $0x0,0x96d6a8
  100668:	75 02                	jne    10066c <serial_intenable+0xb>
		outb(COM1+COM_IER, 1);
		//intr_enable(IRQ_SERIAL13);
		serial_intr();
	}
}
  10066a:	f3 c3                	repz ret 
	(void) inb(COM1+COM_RX);
}

void
serial_intenable(void)
{
  10066c:	83 ec 14             	sub    $0x14,%esp
	if (serial_exists) {
		outb(COM1+COM_IER, 1);
  10066f:	6a 01                	push   $0x1
  100671:	68 f9 03 00 00       	push   $0x3f9
  100676:	e8 59 21 00 00       	call   1027d4 <outb>
		//intr_enable(IRQ_SERIAL13);
		serial_intr();
  10067b:	e8 b6 fe ff ff       	call   100536 <serial_intr>
	}
}
  100680:	83 c4 1c             	add    $0x1c,%esp
  100683:	eb e5                	jmp    10066a <serial_intenable+0x9>

00100685 <kbd_proc_data>:
 * Get data from the keyboard.  If we finish a character, return it.  Else 0.
 * Return -1 if no data.
 */
static int
kbd_proc_data(void)
{
  100685:	53                   	push   %ebx
  100686:	83 ec 14             	sub    $0x14,%esp
  int c;
  uint8_t data;
  static uint32_t shift;

  if ((inb(KBSTATP) & KBS_DIB) == 0)
  100689:	6a 64                	push   $0x64
  10068b:	e8 2c 21 00 00       	call   1027bc <inb>
  100690:	83 c4 10             	add    $0x10,%esp
  100693:	a8 01                	test   $0x1,%al
  100695:	0f 84 f3 00 00 00    	je     10078e <kbd_proc_data+0x109>
    return -1;

  data = inb(KBDATAP);
  10069b:	83 ec 0c             	sub    $0xc,%esp
  10069e:	6a 60                	push   $0x60
  1006a0:	e8 17 21 00 00       	call   1027bc <inb>
  1006a5:	89 c2                	mov    %eax,%edx

  if (data == 0xE0) {
  1006a7:	83 c4 10             	add    $0x10,%esp
  1006aa:	3c e0                	cmp    $0xe0,%al
  1006ac:	74 74                	je     100722 <kbd_proc_data+0x9d>
    // E0 escape character
    shift |= E0ESC;
    return 0;
  } else if (data & 0x80) {
  1006ae:	84 c0                	test   %al,%al
  1006b0:	78 7e                	js     100730 <kbd_proc_data+0xab>
    // Key released
    data = (shift & E0ESC ? data : data & 0x7F);
    shift &= ~(shiftcode[data] | E0ESC);
    return 0;
  } else if (shift & E0ESC) {
  1006b2:	8b 0d 00 c4 12 00    	mov    0x12c400,%ecx
  1006b8:	f6 c1 40             	test   $0x40,%cl
  1006bb:	74 0e                	je     1006cb <kbd_proc_data+0x46>
    // Last character was an E0 escape; or with 0x80
    data |= 0x80;
  1006bd:	89 c2                	mov    %eax,%edx
  1006bf:	83 ca 80             	or     $0xffffff80,%edx
    shift &= ~E0ESC;
  1006c2:	83 e1 bf             	and    $0xffffffbf,%ecx
  1006c5:	89 0d 00 c4 12 00    	mov    %ecx,0x12c400
  }

  shift |= shiftcode[data];
  1006cb:	0f b6 d2             	movzbl %dl,%edx
  1006ce:	0f b6 82 00 4d 10 00 	movzbl 0x104d00(%edx),%eax
  1006d5:	0b 05 00 c4 12 00    	or     0x12c400,%eax
  shift ^= togglecode[data];
  1006db:	0f b6 8a 00 4c 10 00 	movzbl 0x104c00(%edx),%ecx
  1006e2:	31 c8                	xor    %ecx,%eax
  1006e4:	a3 00 c4 12 00       	mov    %eax,0x12c400

  c = charcode[shift & (CTL | SHIFT)][data];
  1006e9:	89 c1                	mov    %eax,%ecx
  1006eb:	83 e1 03             	and    $0x3,%ecx
  1006ee:	8b 0c 8d e0 4b 10 00 	mov    0x104be0(,%ecx,4),%ecx
  1006f5:	0f b6 14 11          	movzbl (%ecx,%edx,1),%edx
  1006f9:	0f b6 da             	movzbl %dl,%ebx
  if (shift & CAPSLOCK) {
  1006fc:	a8 08                	test   $0x8,%al
  1006fe:	74 0d                	je     10070d <kbd_proc_data+0x88>
    if ('a' <= c && c <= 'z')
  100700:	89 da                	mov    %ebx,%edx
  100702:	8d 4b 9f             	lea    -0x61(%ebx),%ecx
  100705:	83 f9 19             	cmp    $0x19,%ecx
  100708:	77 56                	ja     100760 <kbd_proc_data+0xdb>
      c += 'A' - 'a';
  10070a:	83 eb 20             	sub    $0x20,%ebx
      c += 'a' - 'A';
  }

  // Process special keys
  // Ctrl-Alt-Del: reboot
  if (!(~shift & (CTL | ALT)) && c == KEY_DEL) {
  10070d:	f7 d0                	not    %eax
  10070f:	a8 06                	test   $0x6,%al
  100711:	75 08                	jne    10071b <kbd_proc_data+0x96>
  100713:	81 fb e9 00 00 00    	cmp    $0xe9,%ebx
  100719:	74 52                	je     10076d <kbd_proc_data+0xe8>
    dprintf("Rebooting!\n");
    outb(0x92, 0x3); // courtesy of Chris Frost
  }

  return c;
}
  10071b:	89 d8                	mov    %ebx,%eax
  10071d:	83 c4 08             	add    $0x8,%esp
  100720:	5b                   	pop    %ebx
  100721:	c3                   	ret    

  data = inb(KBDATAP);

  if (data == 0xE0) {
    // E0 escape character
    shift |= E0ESC;
  100722:	83 0d 00 c4 12 00 40 	orl    $0x40,0x12c400
    return 0;
  100729:	bb 00 00 00 00       	mov    $0x0,%ebx
  10072e:	eb eb                	jmp    10071b <kbd_proc_data+0x96>
  } else if (data & 0x80) {
    // Key released
    data = (shift & E0ESC ? data : data & 0x7F);
  100730:	8b 0d 00 c4 12 00    	mov    0x12c400,%ecx
  100736:	f6 c1 40             	test   $0x40,%cl
  100739:	75 05                	jne    100740 <kbd_proc_data+0xbb>
  10073b:	89 c2                	mov    %eax,%edx
  10073d:	83 e2 7f             	and    $0x7f,%edx
    shift &= ~(shiftcode[data] | E0ESC);
  100740:	0f b6 d2             	movzbl %dl,%edx
  100743:	0f b6 82 00 4d 10 00 	movzbl 0x104d00(%edx),%eax
  10074a:	83 c8 40             	or     $0x40,%eax
  10074d:	0f b6 c0             	movzbl %al,%eax
  100750:	f7 d0                	not    %eax
  100752:	21 c8                	and    %ecx,%eax
  100754:	a3 00 c4 12 00       	mov    %eax,0x12c400
    return 0;
  100759:	bb 00 00 00 00       	mov    $0x0,%ebx
  10075e:	eb bb                	jmp    10071b <kbd_proc_data+0x96>

  c = charcode[shift & (CTL | SHIFT)][data];
  if (shift & CAPSLOCK) {
    if ('a' <= c && c <= 'z')
      c += 'A' - 'a';
    else if ('A' <= c && c <= 'Z')
  100760:	83 ea 41             	sub    $0x41,%edx
  100763:	83 fa 19             	cmp    $0x19,%edx
  100766:	77 a5                	ja     10070d <kbd_proc_data+0x88>
      c += 'a' - 'A';
  100768:	83 c3 20             	add    $0x20,%ebx
  10076b:	eb a0                	jmp    10070d <kbd_proc_data+0x88>
  }

  // Process special keys
  // Ctrl-Alt-Del: reboot
  if (!(~shift & (CTL | ALT)) && c == KEY_DEL) {
    dprintf("Rebooting!\n");
  10076d:	83 ec 0c             	sub    $0xc,%esp
  100770:	68 c1 4b 10 00       	push   $0x104bc1
  100775:	e8 10 18 00 00       	call   101f8a <dprintf>
    outb(0x92, 0x3); // courtesy of Chris Frost
  10077a:	83 c4 08             	add    $0x8,%esp
  10077d:	6a 03                	push   $0x3
  10077f:	68 92 00 00 00       	push   $0x92
  100784:	e8 4b 20 00 00       	call   1027d4 <outb>
  100789:	83 c4 10             	add    $0x10,%esp
  10078c:	eb 8d                	jmp    10071b <kbd_proc_data+0x96>
  int c;
  uint8_t data;
  static uint32_t shift;

  if ((inb(KBSTATP) & KBS_DIB) == 0)
    return -1;
  10078e:	bb ff ff ff ff       	mov    $0xffffffff,%ebx
  100793:	eb 86                	jmp    10071b <kbd_proc_data+0x96>

00100795 <keyboard_intr>:
  return c;
}

void
keyboard_intr(void)
{
  100795:	83 ec 18             	sub    $0x18,%esp
  cons_intr(kbd_proc_data);
  100798:	68 85 06 10 00       	push   $0x100685
  10079d:	e8 66 fb ff ff       	call   100308 <cons_intr>
}
  1007a2:	83 c4 1c             	add    $0x1c,%esp
  1007a5:	c3                   	ret    

001007a6 <devinit>:

void intr_init(void);

void
devinit (uintptr_t mbi_addr)
{
  1007a6:	53                   	push   %ebx
  1007a7:	83 ec 08             	sub    $0x8,%esp
  1007aa:	8b 5c 24 10          	mov    0x10(%esp),%ebx
	seg_init ();
  1007ae:	e8 84 1c 00 00       	call   102437 <seg_init>

	enable_sse ();
  1007b3:	e8 75 1f 00 00       	call   10272d <enable_sse>

	cons_init ();
  1007b8:	e8 29 fb ff ff       	call   1002e6 <cons_init>
	KERN_DEBUG("cons initialized.\n");
  1007bd:	83 ec 04             	sub    $0x4,%esp
  1007c0:	68 00 4e 10 00       	push   $0x104e00
  1007c5:	6a 15                	push   $0x15
  1007c7:	68 13 4e 10 00       	push   $0x104e13
  1007cc:	e8 3a 16 00 00       	call   101e0b <debug_normal>
	KERN_DEBUG("devinit mbi_adr: %d\n", mbi_addr);
  1007d1:	53                   	push   %ebx
  1007d2:	68 26 4e 10 00       	push   $0x104e26
  1007d7:	6a 16                	push   $0x16
  1007d9:	68 13 4e 10 00       	push   $0x104e13
  1007de:	e8 28 16 00 00       	call   101e0b <debug_normal>

  tsc_init();
  1007e3:	83 c4 20             	add    $0x20,%esp
  1007e6:	e8 33 11 00 00       	call   10191e <tsc_init>

	intr_init();
  1007eb:	e8 ed 0c 00 00       	call   1014dd <intr_init>

  /* enable interrupts */
  intr_enable (IRQ_TIMER);
  1007f0:	83 ec 0c             	sub    $0xc,%esp
  1007f3:	6a 00                	push   $0x0
  1007f5:	e8 07 0d 00 00       	call   101501 <intr_enable>
  intr_enable (IRQ_KBD);
  1007fa:	c7 04 24 01 00 00 00 	movl   $0x1,(%esp)
  100801:	e8 fb 0c 00 00       	call   101501 <intr_enable>
  intr_enable (IRQ_SERIAL13);
  100806:	c7 04 24 04 00 00 00 	movl   $0x4,(%esp)
  10080d:	e8 ef 0c 00 00       	call   101501 <intr_enable>

	pmmap_init (mbi_addr);
  100812:	89 1c 24             	mov    %ebx,(%esp)
  100815:	e8 24 02 00 00       	call   100a3e <pmmap_init>

}
  10081a:	83 c4 18             	add    $0x18,%esp
  10081d:	5b                   	pop    %ebx
  10081e:	c3                   	ret    

0010081f <pmmap_dump>:
		max_usable_memory = last_slot[PMMAP_USABLE]->end;
}

static void
pmmap_dump(void)
{
  10081f:	53                   	push   %ebx
  100820:	83 ec 08             	sub    $0x8,%esp
	struct pmmap *slot;
	SLIST_FOREACH(slot, &pmmap_list, next) {
  100823:	8b 1d 38 c4 12 00    	mov    0x12c438,%ebx
  100829:	eb 30                	jmp    10085b <pmmap_dump+0x3c>
		KERN_INFO("BIOS-e820: 0x%08x - 0x%08x (%s)\n",
  10082b:	b9 5d 4e 10 00       	mov    $0x104e5d,%ecx
  100830:	eb 05                	jmp    100837 <pmmap_dump+0x18>
  100832:	b9 44 4e 10 00       	mov    $0x104e44,%ecx
  100837:	8b 13                	mov    (%ebx),%edx
  100839:	8b 43 04             	mov    0x4(%ebx),%eax
  10083c:	39 c2                	cmp    %eax,%edx
  10083e:	74 08                	je     100848 <pmmap_dump+0x29>
  100840:	83 f8 ff             	cmp    $0xffffffff,%eax
  100843:	74 03                	je     100848 <pmmap_dump+0x29>
  100845:	83 e8 01             	sub    $0x1,%eax
  100848:	51                   	push   %ecx
  100849:	50                   	push   %eax
  10084a:	52                   	push   %edx
  10084b:	68 c4 4e 10 00       	push   $0x104ec4
  100850:	e8 9e 15 00 00       	call   101df3 <debug_info>

static void
pmmap_dump(void)
{
	struct pmmap *slot;
	SLIST_FOREACH(slot, &pmmap_list, next) {
  100855:	8b 5b 0c             	mov    0xc(%ebx),%ebx
  100858:	83 c4 10             	add    $0x10,%esp
  10085b:	85 db                	test   %ebx,%ebx
  10085d:	74 2c                	je     10088b <pmmap_dump+0x6c>
		KERN_INFO("BIOS-e820: 0x%08x - 0x%08x (%s)\n",
  10085f:	8b 43 08             	mov    0x8(%ebx),%eax
  100862:	83 f8 01             	cmp    $0x1,%eax
  100865:	74 cb                	je     100832 <pmmap_dump+0x13>
  100867:	83 f8 02             	cmp    $0x2,%eax
  10086a:	74 11                	je     10087d <pmmap_dump+0x5e>
  10086c:	83 f8 03             	cmp    $0x3,%eax
  10086f:	74 13                	je     100884 <pmmap_dump+0x65>
  100871:	83 f8 04             	cmp    $0x4,%eax
  100874:	74 b5                	je     10082b <pmmap_dump+0xc>
  100876:	b9 55 4e 10 00       	mov    $0x104e55,%ecx
  10087b:	eb ba                	jmp    100837 <pmmap_dump+0x18>
  10087d:	b9 3b 4e 10 00       	mov    $0x104e3b,%ecx
  100882:	eb b3                	jmp    100837 <pmmap_dump+0x18>
  100884:	b9 4b 4e 10 00       	mov    $0x104e4b,%ecx
  100889:	eb ac                	jmp    100837 <pmmap_dump+0x18>
			  (slot->type == MEM_RESERVED) ? "reserved" :
			  (slot->type == MEM_ACPI) ? "ACPI data" :
			  (slot->type == MEM_NVS) ? "ACPI NVS" :
			  "unknown");
	}
}
  10088b:	83 c4 08             	add    $0x8,%esp
  10088e:	5b                   	pop    %ebx
  10088f:	c3                   	ret    

00100890 <pmmap_merge>:
  }
}

static void
pmmap_merge(void)
{
  100890:	56                   	push   %esi
  100891:	53                   	push   %ebx
  100892:	83 ec 14             	sub    $0x14,%esp
	struct pmmap *slot, *next_slot;
	struct pmmap *last_slot[4] = { NULL, NULL, NULL, NULL };
  100895:	c7 04 24 00 00 00 00 	movl   $0x0,(%esp)
  10089c:	c7 44 24 04 00 00 00 	movl   $0x0,0x4(%esp)
  1008a3:	00 
  1008a4:	c7 44 24 08 00 00 00 	movl   $0x0,0x8(%esp)
  1008ab:	00 
  1008ac:	c7 44 24 0c 00 00 00 	movl   $0x0,0xc(%esp)
  1008b3:	00 
	int sublist_nr;

	/*
	 * Step 1: Merge overlaped entries in pmmap_list.
	 */
	SLIST_FOREACH(slot, &pmmap_list, next) {
  1008b4:	8b 1d 38 c4 12 00    	mov    0x12c438,%ebx
  1008ba:	eb 03                	jmp    1008bf <pmmap_merge+0x2f>
  1008bc:	8b 5b 0c             	mov    0xc(%ebx),%ebx
  1008bf:	85 db                	test   %ebx,%ebx
  1008c1:	74 39                	je     1008fc <pmmap_merge+0x6c>
		if ((next_slot = SLIST_NEXT(slot, next)) == NULL)
  1008c3:	8b 43 0c             	mov    0xc(%ebx),%eax
  1008c6:	85 c0                	test   %eax,%eax
  1008c8:	74 32                	je     1008fc <pmmap_merge+0x6c>
			break;
		if (slot->start <= next_slot->start &&
  1008ca:	8b 10                	mov    (%eax),%edx
  1008cc:	39 13                	cmp    %edx,(%ebx)
  1008ce:	77 ec                	ja     1008bc <pmmap_merge+0x2c>
		    slot->end >= next_slot->start &&
  1008d0:	8b 4b 04             	mov    0x4(%ebx),%ecx
	 * Step 1: Merge overlaped entries in pmmap_list.
	 */
	SLIST_FOREACH(slot, &pmmap_list, next) {
		if ((next_slot = SLIST_NEXT(slot, next)) == NULL)
			break;
		if (slot->start <= next_slot->start &&
  1008d3:	39 ca                	cmp    %ecx,%edx
  1008d5:	77 e5                	ja     1008bc <pmmap_merge+0x2c>
		    slot->end >= next_slot->start &&
  1008d7:	8b 50 08             	mov    0x8(%eax),%edx
  1008da:	39 53 08             	cmp    %edx,0x8(%ebx)
  1008dd:	75 dd                	jne    1008bc <pmmap_merge+0x2c>
		    slot->type == next_slot->type) {
			slot->end = max(slot->end, next_slot->end);
  1008df:	83 ec 08             	sub    $0x8,%esp
  1008e2:	ff 70 04             	pushl  0x4(%eax)
  1008e5:	51                   	push   %ecx
  1008e6:	e8 d2 1d 00 00       	call   1026bd <max>
  1008eb:	89 43 04             	mov    %eax,0x4(%ebx)
			SLIST_REMOVE_AFTER(slot, next);
  1008ee:	8b 43 0c             	mov    0xc(%ebx),%eax
  1008f1:	8b 40 0c             	mov    0xc(%eax),%eax
  1008f4:	89 43 0c             	mov    %eax,0xc(%ebx)
  1008f7:	83 c4 10             	add    $0x10,%esp
  1008fa:	eb c0                	jmp    1008bc <pmmap_merge+0x2c>

	/*
	 * Step 2: Create the specfic lists: pmmap_usable, pmmap_resv,
	 *         pmmap_acpi, pmmap_nvs.
	 */
	SLIST_FOREACH(slot, &pmmap_list, next) {
  1008fc:	8b 1d 38 c4 12 00    	mov    0x12c438,%ebx
  100902:	eb 27                	jmp    10092b <pmmap_merge+0x9b>
		sublist_nr = PMMAP_SUBLIST_NR(slot->type);
  100904:	be 03 00 00 00       	mov    $0x3,%esi
  100909:	eb 05                	jmp    100910 <pmmap_merge+0x80>
  10090b:	be 00 00 00 00       	mov    $0x0,%esi
    KERN_ASSERT(sublist_nr != -1);
  100910:	83 fe ff             	cmp    $0xffffffff,%esi
  100913:	74 46                	je     10095b <pmmap_merge+0xcb>
		if (last_slot[sublist_nr] != NULL)
  100915:	8b 04 b4             	mov    (%esp,%esi,4),%eax
  100918:	85 c0                	test   %eax,%eax
  10091a:	74 5a                	je     100976 <pmmap_merge+0xe6>
			SLIST_INSERT_AFTER(last_slot[sublist_nr], slot,
  10091c:	8b 50 10             	mov    0x10(%eax),%edx
  10091f:	89 53 10             	mov    %edx,0x10(%ebx)
  100922:	89 58 10             	mov    %ebx,0x10(%eax)
					   type_next);
		else
			SLIST_INSERT_HEAD(&pmmap_sublist[sublist_nr], slot,
					  type_next);
		last_slot[sublist_nr] = slot;
  100925:	89 1c b4             	mov    %ebx,(%esp,%esi,4)

	/*
	 * Step 2: Create the specfic lists: pmmap_usable, pmmap_resv,
	 *         pmmap_acpi, pmmap_nvs.
	 */
	SLIST_FOREACH(slot, &pmmap_list, next) {
  100928:	8b 5b 0c             	mov    0xc(%ebx),%ebx
  10092b:	85 db                	test   %ebx,%ebx
  10092d:	74 5a                	je     100989 <pmmap_merge+0xf9>
		sublist_nr = PMMAP_SUBLIST_NR(slot->type);
  10092f:	8b 43 08             	mov    0x8(%ebx),%eax
  100932:	83 f8 01             	cmp    $0x1,%eax
  100935:	74 d4                	je     10090b <pmmap_merge+0x7b>
  100937:	83 f8 02             	cmp    $0x2,%eax
  10093a:	74 11                	je     10094d <pmmap_merge+0xbd>
  10093c:	83 f8 03             	cmp    $0x3,%eax
  10093f:	74 13                	je     100954 <pmmap_merge+0xc4>
  100941:	83 f8 04             	cmp    $0x4,%eax
  100944:	74 be                	je     100904 <pmmap_merge+0x74>
  100946:	be ff ff ff ff       	mov    $0xffffffff,%esi
  10094b:	eb c3                	jmp    100910 <pmmap_merge+0x80>
  10094d:	be 01 00 00 00       	mov    $0x1,%esi
  100952:	eb bc                	jmp    100910 <pmmap_merge+0x80>
  100954:	be 02 00 00 00       	mov    $0x2,%esi
  100959:	eb b5                	jmp    100910 <pmmap_merge+0x80>
    KERN_ASSERT(sublist_nr != -1);
  10095b:	68 66 4e 10 00       	push   $0x104e66
  100960:	68 77 4e 10 00       	push   $0x104e77
  100965:	6a 71                	push   $0x71
  100967:	68 94 4e 10 00       	push   $0x104e94
  10096c:	e8 c4 14 00 00       	call   101e35 <debug_panic>
  100971:	83 c4 10             	add    $0x10,%esp
  100974:	eb 9f                	jmp    100915 <pmmap_merge+0x85>
		if (last_slot[sublist_nr] != NULL)
			SLIST_INSERT_AFTER(last_slot[sublist_nr], slot,
					   type_next);
		else
			SLIST_INSERT_HEAD(&pmmap_sublist[sublist_nr], slot,
  100976:	8b 04 b5 28 c4 12 00 	mov    0x12c428(,%esi,4),%eax
  10097d:	89 43 10             	mov    %eax,0x10(%ebx)
  100980:	89 1c b5 28 c4 12 00 	mov    %ebx,0x12c428(,%esi,4)
  100987:	eb 9c                	jmp    100925 <pmmap_merge+0x95>
					  type_next);
		last_slot[sublist_nr] = slot;
	}

	if (last_slot[PMMAP_USABLE] != NULL)
  100989:	8b 04 24             	mov    (%esp),%eax
  10098c:	85 c0                	test   %eax,%eax
  10098e:	74 08                	je     100998 <pmmap_merge+0x108>
		max_usable_memory = last_slot[PMMAP_USABLE]->end;
  100990:	8b 40 04             	mov    0x4(%eax),%eax
  100993:	a3 24 c4 12 00       	mov    %eax,0x12c424
}
  100998:	83 c4 14             	add    $0x14,%esp
  10099b:	5b                   	pop    %ebx
  10099c:	5e                   	pop    %esi
  10099d:	c3                   	ret    

0010099e <pmmap_alloc_slot>:
static int pmmap_nentries = 0;

struct pmmap *
pmmap_alloc_slot(void)
{
	if (unlikely(pmmap_slots_next_free == 128))
  10099e:	a1 3c c4 12 00       	mov    0x12c43c,%eax
  1009a3:	3d 80 00 00 00       	cmp    $0x80,%eax
  1009a8:	74 19                	je     1009c3 <pmmap_alloc_slot+0x25>
		return NULL;
	return &pmmap_slots[pmmap_slots_next_free++];
  1009aa:	8d 50 01             	lea    0x1(%eax),%edx
  1009ad:	89 15 3c c4 12 00    	mov    %edx,0x12c43c
  1009b3:	8d 14 80             	lea    (%eax,%eax,4),%edx
  1009b6:	8d 04 95 00 00 00 00 	lea    0x0(,%edx,4),%eax
  1009bd:	05 40 c4 12 00       	add    $0x12c440,%eax
  1009c2:	c3                   	ret    

struct pmmap *
pmmap_alloc_slot(void)
{
	if (unlikely(pmmap_slots_next_free == 128))
		return NULL;
  1009c3:	b8 00 00 00 00       	mov    $0x0,%eax
	return &pmmap_slots[pmmap_slots_next_free++];
}
  1009c8:	c3                   	ret    

001009c9 <pmmap_insert>:
 * @param end
 * @param type
 */
static void
pmmap_insert(uintptr_t start, uintptr_t end, uint32_t type)
{
  1009c9:	55                   	push   %ebp
  1009ca:	57                   	push   %edi
  1009cb:	56                   	push   %esi
  1009cc:	53                   	push   %ebx
  1009cd:	83 ec 0c             	sub    $0xc,%esp
  1009d0:	89 c3                	mov    %eax,%ebx
  1009d2:	89 d5                	mov    %edx,%ebp
  1009d4:	89 cf                	mov    %ecx,%edi
	struct pmmap *free_slot, *slot, *last_slot;

	if ((free_slot = pmmap_alloc_slot()) == NULL)
  1009d6:	e8 c3 ff ff ff       	call   10099e <pmmap_alloc_slot>
  1009db:	89 c6                	mov    %eax,%esi
  1009dd:	85 c0                	test   %eax,%eax
  1009df:	74 24                	je     100a05 <pmmap_insert+0x3c>
		KERN_PANIC("More than 128 E820 entries.\n");

	free_slot->start = start;
  1009e1:	89 1e                	mov    %ebx,(%esi)
	free_slot->end = end;
  1009e3:	89 6e 04             	mov    %ebp,0x4(%esi)
	free_slot->type = type;
  1009e6:	89 7e 08             	mov    %edi,0x8(%esi)

	last_slot = NULL;

	SLIST_FOREACH(slot, &pmmap_list, next) {
  1009e9:	8b 0d 38 c4 12 00    	mov    0x12c438,%ecx
  1009ef:	89 c8                	mov    %ecx,%eax

	free_slot->start = start;
	free_slot->end = end;
	free_slot->type = type;

	last_slot = NULL;
  1009f1:	ba 00 00 00 00       	mov    $0x0,%edx

	SLIST_FOREACH(slot, &pmmap_list, next) {
  1009f6:	85 c0                	test   %eax,%eax
  1009f8:	74 24                	je     100a1e <pmmap_insert+0x55>
		if (start < slot->start)
  1009fa:	3b 18                	cmp    (%eax),%ebx
  1009fc:	72 20                	jb     100a1e <pmmap_insert+0x55>
			break;
		last_slot = slot;
  1009fe:	89 c2                	mov    %eax,%edx
	free_slot->end = end;
	free_slot->type = type;

	last_slot = NULL;

	SLIST_FOREACH(slot, &pmmap_list, next) {
  100a00:	8b 40 0c             	mov    0xc(%eax),%eax
  100a03:	eb f1                	jmp    1009f6 <pmmap_insert+0x2d>
pmmap_insert(uintptr_t start, uintptr_t end, uint32_t type)
{
	struct pmmap *free_slot, *slot, *last_slot;

	if ((free_slot = pmmap_alloc_slot()) == NULL)
		KERN_PANIC("More than 128 E820 entries.\n");
  100a05:	83 ec 04             	sub    $0x4,%esp
  100a08:	68 a5 4e 10 00       	push   $0x104ea5
  100a0d:	6a 3e                	push   $0x3e
  100a0f:	68 94 4e 10 00       	push   $0x104e94
  100a14:	e8 1c 14 00 00       	call   101e35 <debug_panic>
  100a19:	83 c4 10             	add    $0x10,%esp
  100a1c:	eb c3                	jmp    1009e1 <pmmap_insert+0x18>
		if (start < slot->start)
			break;
		last_slot = slot;
	}

	if (last_slot == NULL)
  100a1e:	85 d2                	test   %edx,%edx
  100a20:	74 11                	je     100a33 <pmmap_insert+0x6a>
  {
		SLIST_INSERT_HEAD(&pmmap_list, free_slot, next);
  }
	else
  {
		SLIST_INSERT_AFTER(last_slot, free_slot, next);
  100a22:	8b 42 0c             	mov    0xc(%edx),%eax
  100a25:	89 46 0c             	mov    %eax,0xc(%esi)
  100a28:	89 72 0c             	mov    %esi,0xc(%edx)
  }
}
  100a2b:	83 c4 0c             	add    $0xc,%esp
  100a2e:	5b                   	pop    %ebx
  100a2f:	5e                   	pop    %esi
  100a30:	5f                   	pop    %edi
  100a31:	5d                   	pop    %ebp
  100a32:	c3                   	ret    
		last_slot = slot;
	}

	if (last_slot == NULL)
  {
		SLIST_INSERT_HEAD(&pmmap_list, free_slot, next);
  100a33:	89 4e 0c             	mov    %ecx,0xc(%esi)
  100a36:	89 35 38 c4 12 00    	mov    %esi,0x12c438
  100a3c:	eb ed                	jmp    100a2b <pmmap_insert+0x62>

00100a3e <pmmap_init>:
	}
}

void
pmmap_init(uintptr_t mbi_addr)
{
  100a3e:	57                   	push   %edi
  100a3f:	56                   	push   %esi
  100a40:	53                   	push   %ebx
  100a41:	8b 74 24 10          	mov    0x10(%esp),%esi
	KERN_INFO("\n");
  100a45:	83 ec 0c             	sub    $0xc,%esp
  100a48:	68 4f 54 10 00       	push   $0x10544f
  100a4d:	e8 a1 13 00 00       	call   101df3 <debug_info>

	mboot_info_t *mbi = (mboot_info_t *) mbi_addr;
  100a52:	89 f3                	mov    %esi,%ebx
	mboot_mmap_t *p = (mboot_mmap_t *) mbi->mmap_addr;
  100a54:	8b 4e 30             	mov    0x30(%esi),%ecx

	SLIST_INIT(&pmmap_list);
  100a57:	c7 05 38 c4 12 00 00 	movl   $0x0,0x12c438
  100a5e:	00 00 00 
	SLIST_INIT(&pmmap_sublist[PMMAP_USABLE]);
  100a61:	c7 05 28 c4 12 00 00 	movl   $0x0,0x12c428
  100a68:	00 00 00 
	SLIST_INIT(&pmmap_sublist[PMMAP_RESV]);
  100a6b:	c7 05 2c c4 12 00 00 	movl   $0x0,0x12c42c
  100a72:	00 00 00 
	SLIST_INIT(&pmmap_sublist[PMMAP_ACPI]);
  100a75:	c7 05 30 c4 12 00 00 	movl   $0x0,0x12c430
  100a7c:	00 00 00 
	SLIST_INIT(&pmmap_sublist[PMMAP_NVS]);
  100a7f:	c7 05 34 c4 12 00 00 	movl   $0x0,0x12c434
  100a86:	00 00 00 

	/*
	 * Copy memory map information from multiboot information mbi to pmmap.
	 */
	while ((uintptr_t) p - (uintptr_t) mbi->mmap_addr < mbi->mmap_length) {
  100a89:	83 c4 10             	add    $0x10,%esp
  100a8c:	eb 10                	jmp    100a9e <pmmap_init+0x60>
		else
			start = p->base_addr_low;

		if (p->length_high != 0 ||
		    p->length_low >= 0xffffffff - start)
			end = 0xffffffff;
  100a8e:	ba ff ff ff ff       	mov    $0xffffffff,%edx
		else
			end = start + p->length_low;

		type = p->type;
  100a93:	8b 49 14             	mov    0x14(%ecx),%ecx

		pmmap_insert(start, end, type);
  100a96:	e8 2e ff ff ff       	call   1009c9 <pmmap_insert>
    //pmmap_dump();

	next:
		p = (mboot_mmap_t *) (((uint32_t) p) + sizeof(mboot_mmap_t)/* p->size */);
  100a9b:	8d 4e 18             	lea    0x18(%esi),%ecx
	SLIST_INIT(&pmmap_sublist[PMMAP_NVS]);

	/*
	 * Copy memory map information from multiboot information mbi to pmmap.
	 */
	while ((uintptr_t) p - (uintptr_t) mbi->mmap_addr < mbi->mmap_length) {
  100a9e:	89 ce                	mov    %ecx,%esi
  100aa0:	89 c8                	mov    %ecx,%eax
  100aa2:	2b 43 30             	sub    0x30(%ebx),%eax
  100aa5:	3b 43 2c             	cmp    0x2c(%ebx),%eax
  100aa8:	73 25                	jae    100acf <pmmap_init+0x91>
		uintptr_t start,end;
		uint32_t type;

		if (p->base_addr_high != 0)	/* ignore address above 4G */
  100aaa:	83 79 08 00          	cmpl   $0x0,0x8(%ecx)
  100aae:	75 eb                	jne    100a9b <pmmap_init+0x5d>
			goto next;
		else
			start = p->base_addr_low;
  100ab0:	8b 41 04             	mov    0x4(%ecx),%eax

		if (p->length_high != 0 ||
  100ab3:	83 79 10 00          	cmpl   $0x0,0x10(%ecx)
  100ab7:	75 d5                	jne    100a8e <pmmap_init+0x50>
		    p->length_low >= 0xffffffff - start)
  100ab9:	8b 51 0c             	mov    0xc(%ecx),%edx
  100abc:	89 c7                	mov    %eax,%edi
  100abe:	f7 d7                	not    %edi
		if (p->base_addr_high != 0)	/* ignore address above 4G */
			goto next;
		else
			start = p->base_addr_low;

		if (p->length_high != 0 ||
  100ac0:	39 fa                	cmp    %edi,%edx
  100ac2:	73 04                	jae    100ac8 <pmmap_init+0x8a>
		    p->length_low >= 0xffffffff - start)
			end = 0xffffffff;
		else
			end = start + p->length_low;
  100ac4:	01 c2                	add    %eax,%edx
  100ac6:	eb cb                	jmp    100a93 <pmmap_init+0x55>
		else
			start = p->base_addr_low;

		if (p->length_high != 0 ||
		    p->length_low >= 0xffffffff - start)
			end = 0xffffffff;
  100ac8:	ba ff ff ff ff       	mov    $0xffffffff,%edx
  100acd:	eb c4                	jmp    100a93 <pmmap_init+0x55>
	next:
		p = (mboot_mmap_t *) (((uint32_t) p) + sizeof(mboot_mmap_t)/* p->size */);
	}

	/* merge overlapped memory regions */
	pmmap_merge();
  100acf:	e8 bc fd ff ff       	call   100890 <pmmap_merge>
	pmmap_dump();
  100ad4:	e8 46 fd ff ff       	call   10081f <pmmap_dump>

	/* count the number of pmmap entries */
	struct pmmap *slot;
	SLIST_FOREACH(slot, &pmmap_list, next) {
  100ad9:	a1 38 c4 12 00       	mov    0x12c438,%eax
  100ade:	eb 0a                	jmp    100aea <pmmap_init+0xac>
		pmmap_nentries++;
  100ae0:	83 05 20 c4 12 00 01 	addl   $0x1,0x12c420
	pmmap_merge();
	pmmap_dump();

	/* count the number of pmmap entries */
	struct pmmap *slot;
	SLIST_FOREACH(slot, &pmmap_list, next) {
  100ae7:	8b 40 0c             	mov    0xc(%eax),%eax
  100aea:	85 c0                	test   %eax,%eax
  100aec:	75 f2                	jne    100ae0 <pmmap_init+0xa2>
		pmmap_nentries++;
	}

	/* Calculate the maximum page number */
	mem_npages = rounddown(max_usable_memory, PAGESIZE) / PAGESIZE;
  100aee:	83 ec 08             	sub    $0x8,%esp
  100af1:	68 00 10 00 00       	push   $0x1000
  100af6:	ff 35 24 c4 12 00    	pushl  0x12c424
  100afc:	e8 d8 1b 00 00       	call   1026d9 <rounddown>
}
  100b01:	83 c4 10             	add    $0x10,%esp
  100b04:	5b                   	pop    %ebx
  100b05:	5e                   	pop    %esi
  100b06:	5f                   	pop    %edi
  100b07:	c3                   	ret    

00100b08 <get_size>:

int
get_size(void)
{
	return pmmap_nentries;
}
  100b08:	a1 20 c4 12 00       	mov    0x12c420,%eax
  100b0d:	c3                   	ret    

00100b0e <get_mms>:

uint32_t
get_mms(int idx)
{
  100b0e:	8b 4c 24 04          	mov    0x4(%esp),%ecx
	int i = 0;
	struct pmmap *slot = NULL;

	SLIST_FOREACH(slot, &pmmap_list, next) {
  100b12:	a1 38 c4 12 00       	mov    0x12c438,%eax
}

uint32_t
get_mms(int idx)
{
	int i = 0;
  100b17:	ba 00 00 00 00       	mov    $0x0,%edx
	struct pmmap *slot = NULL;

	SLIST_FOREACH(slot, &pmmap_list, next) {
  100b1c:	85 c0                	test   %eax,%eax
  100b1e:	74 0c                	je     100b2c <get_mms+0x1e>
		if (i == idx)
  100b20:	39 ca                	cmp    %ecx,%edx
  100b22:	74 08                	je     100b2c <get_mms+0x1e>
			break;
		i++;
  100b24:	83 c2 01             	add    $0x1,%edx
get_mms(int idx)
{
	int i = 0;
	struct pmmap *slot = NULL;

	SLIST_FOREACH(slot, &pmmap_list, next) {
  100b27:	8b 40 0c             	mov    0xc(%eax),%eax
  100b2a:	eb f0                	jmp    100b1c <get_mms+0xe>
		if (i == idx)
			break;
		i++;
	}

	if (slot == NULL || i == pmmap_nentries)
  100b2c:	85 c0                	test   %eax,%eax
  100b2e:	74 0b                	je     100b3b <get_mms+0x2d>
  100b30:	3b 15 20 c4 12 00    	cmp    0x12c420,%edx
  100b36:	74 09                	je     100b41 <get_mms+0x33>
		return 0;

	return slot->start;
  100b38:	8b 00                	mov    (%eax),%eax
  100b3a:	c3                   	ret    
			break;
		i++;
	}

	if (slot == NULL || i == pmmap_nentries)
		return 0;
  100b3b:	b8 00 00 00 00       	mov    $0x0,%eax
  100b40:	c3                   	ret    
  100b41:	b8 00 00 00 00       	mov    $0x0,%eax

	return slot->start;
}
  100b46:	c3                   	ret    

00100b47 <get_mml>:

uint32_t
get_mml(int idx)
{
  100b47:	8b 4c 24 04          	mov    0x4(%esp),%ecx
	int i = 0;
	struct pmmap *slot = NULL;

	SLIST_FOREACH(slot, &pmmap_list, next) {
  100b4b:	8b 15 38 c4 12 00    	mov    0x12c438,%edx
}

uint32_t
get_mml(int idx)
{
	int i = 0;
  100b51:	b8 00 00 00 00       	mov    $0x0,%eax
	struct pmmap *slot = NULL;

	SLIST_FOREACH(slot, &pmmap_list, next) {
  100b56:	85 d2                	test   %edx,%edx
  100b58:	74 0c                	je     100b66 <get_mml+0x1f>
		if (i == idx)
  100b5a:	39 c8                	cmp    %ecx,%eax
  100b5c:	74 08                	je     100b66 <get_mml+0x1f>
			break;
		i++;
  100b5e:	83 c0 01             	add    $0x1,%eax
get_mml(int idx)
{
	int i = 0;
	struct pmmap *slot = NULL;

	SLIST_FOREACH(slot, &pmmap_list, next) {
  100b61:	8b 52 0c             	mov    0xc(%edx),%edx
  100b64:	eb f0                	jmp    100b56 <get_mml+0xf>
		if (i == idx)
			break;
		i++;
	}

	if (slot == NULL || i == pmmap_nentries)
  100b66:	85 d2                	test   %edx,%edx
  100b68:	74 0e                	je     100b78 <get_mml+0x31>
  100b6a:	3b 05 20 c4 12 00    	cmp    0x12c420,%eax
  100b70:	74 0c                	je     100b7e <get_mml+0x37>
		return 0;

	return slot->end - slot->start;
  100b72:	8b 42 04             	mov    0x4(%edx),%eax
  100b75:	2b 02                	sub    (%edx),%eax
  100b77:	c3                   	ret    
			break;
		i++;
	}

	if (slot == NULL || i == pmmap_nentries)
		return 0;
  100b78:	b8 00 00 00 00       	mov    $0x0,%eax
  100b7d:	c3                   	ret    
  100b7e:	b8 00 00 00 00       	mov    $0x0,%eax

	return slot->end - slot->start;
}
  100b83:	c3                   	ret    

00100b84 <is_usable>:

int
is_usable(int idx)
{
  100b84:	8b 4c 24 04          	mov    0x4(%esp),%ecx
	int i = 0;
	struct pmmap *slot = NULL;

	SLIST_FOREACH(slot, &pmmap_list, next) {
  100b88:	a1 38 c4 12 00       	mov    0x12c438,%eax
}

int
is_usable(int idx)
{
	int i = 0;
  100b8d:	ba 00 00 00 00       	mov    $0x0,%edx
	struct pmmap *slot = NULL;

	SLIST_FOREACH(slot, &pmmap_list, next) {
  100b92:	85 c0                	test   %eax,%eax
  100b94:	74 0c                	je     100ba2 <is_usable+0x1e>
		if (i == idx)
  100b96:	39 ca                	cmp    %ecx,%edx
  100b98:	74 08                	je     100ba2 <is_usable+0x1e>
			break;
		i++;
  100b9a:	83 c2 01             	add    $0x1,%edx
is_usable(int idx)
{
	int i = 0;
	struct pmmap *slot = NULL;

	SLIST_FOREACH(slot, &pmmap_list, next) {
  100b9d:	8b 40 0c             	mov    0xc(%eax),%eax
  100ba0:	eb f0                	jmp    100b92 <is_usable+0xe>
		if (i == idx)
			break;
		i++;
	}

	if (slot == NULL || i == pmmap_nentries)
  100ba2:	85 c0                	test   %eax,%eax
  100ba4:	74 13                	je     100bb9 <is_usable+0x35>
  100ba6:	3b 15 20 c4 12 00    	cmp    0x12c420,%edx
  100bac:	74 11                	je     100bbf <is_usable+0x3b>
		return 0;

	return slot->type == MEM_RAM;
  100bae:	83 78 08 01          	cmpl   $0x1,0x8(%eax)
  100bb2:	0f 94 c0             	sete   %al
  100bb5:	0f b6 c0             	movzbl %al,%eax
  100bb8:	c3                   	ret    
			break;
		i++;
	}

	if (slot == NULL || i == pmmap_nentries)
		return 0;
  100bb9:	b8 00 00 00 00       	mov    $0x0,%eax
  100bbe:	c3                   	ret    
  100bbf:	b8 00 00 00 00       	mov    $0x0,%eax

	return slot->type == MEM_RAM;
}
  100bc4:	c3                   	ret    

00100bc5 <set_cr3>:

void
set_cr3(char **pdir)
{
  100bc5:	83 ec 18             	sub    $0x18,%esp
	lcr3((uint32_t) pdir);
  100bc8:	ff 74 24 1c          	pushl  0x1c(%esp)
  100bcc:	e8 d7 1b 00 00       	call   1027a8 <lcr3>
}
  100bd1:	83 c4 1c             	add    $0x1c,%esp
  100bd4:	c3                   	ret    

00100bd5 <enable_paging>:

void
enable_paging(void)
{
  100bd5:	83 ec 0c             	sub    $0xc,%esp
	/* enable global pages (Sec 4.10.2.4, Intel ASDM Vol3) */
	uint32_t cr4 = rcr4();
  100bd8:	e8 db 1b 00 00       	call   1027b8 <rcr4>
	cr4 |= CR4_PGE;
  100bdd:	0c 80                	or     $0x80,%al
	lcr4(cr4);
  100bdf:	83 ec 0c             	sub    $0xc,%esp
  100be2:	50                   	push   %eax
  100be3:	e8 c8 1b 00 00       	call   1027b0 <lcr4>

	/* turn on paging */
	uint32_t cr0 = rcr0();
  100be8:	e8 b3 1b 00 00       	call   1027a0 <rcr0>
  100bed:	83 e0 f3             	and    $0xfffffff3,%eax
	cr0 |= CR0_PE | CR0_PG | CR0_AM | CR0_WP | CR0_NE | CR0_MP;
	cr0 &= ~(CR0_EM | CR0_TS);
  100bf0:	0d 23 00 05 80       	or     $0x80050023,%eax
	lcr0(cr0);
  100bf5:	89 04 24             	mov    %eax,(%esp)
  100bf8:	e8 9b 1b 00 00       	call   102798 <lcr0>
}
  100bfd:	83 c4 1c             	add    $0x1c,%esp
  100c00:	c3                   	ret    

00100c01 <intr_init_idt>:

	/* check that T_IRQ0 is a multiple of 8 */
	KERN_ASSERT((T_IRQ0 & 7) == 0);

	/* install a default handler */
	for (i = 0; i < sizeof(idt)/sizeof(idt[0]); i++)
  100c01:	ba 00 00 00 00       	mov    $0x0,%edx
  100c06:	eb 48                	jmp    100c50 <intr_init_idt+0x4f>
		SETGATE(idt[i], 0, CPU_GDT_KCODE, &Xdefault, 0);
  100c08:	b9 fe 1b 10 00       	mov    $0x101bfe,%ecx
  100c0d:	66 89 0c d5 c0 d6 96 	mov    %cx,0x96d6c0(,%edx,8)
  100c14:	00 
  100c15:	66 c7 04 d5 c2 d6 96 	movw   $0x8,0x96d6c2(,%edx,8)
  100c1c:	00 08 00 
  100c1f:	c6 04 d5 c4 d6 96 00 	movb   $0x0,0x96d6c4(,%edx,8)
  100c26:	00 
  100c27:	0f b6 04 d5 c5 d6 96 	movzbl 0x96d6c5(,%edx,8),%eax
  100c2e:	00 
  100c2f:	83 e0 f0             	and    $0xfffffff0,%eax
  100c32:	83 c8 0e             	or     $0xe,%eax
  100c35:	83 e0 8f             	and    $0xffffff8f,%eax
  100c38:	83 c8 80             	or     $0xffffff80,%eax
  100c3b:	88 04 d5 c5 d6 96 00 	mov    %al,0x96d6c5(,%edx,8)
  100c42:	c1 e9 10             	shr    $0x10,%ecx
  100c45:	66 89 0c d5 c6 d6 96 	mov    %cx,0x96d6c6(,%edx,8)
  100c4c:	00 

	/* check that T_IRQ0 is a multiple of 8 */
	KERN_ASSERT((T_IRQ0 & 7) == 0);

	/* install a default handler */
	for (i = 0; i < sizeof(idt)/sizeof(idt[0]); i++)
  100c4d:	83 c2 01             	add    $0x1,%edx
  100c50:	81 fa ff 00 00 00    	cmp    $0xff,%edx
  100c56:	76 b0                	jbe    100c08 <intr_init_idt+0x7>
		SETGATE(idt[i], 0, CPU_GDT_KCODE, &Xdefault, 0);

	SETGATE(idt[T_DIVIDE],            0, CPU_GDT_KCODE, &Xdivide,       0);
  100c58:	ba f0 1a 10 00       	mov    $0x101af0,%edx
  100c5d:	66 89 15 c0 d6 96 00 	mov    %dx,0x96d6c0
  100c64:	66 c7 05 c2 d6 96 00 	movw   $0x8,0x96d6c2
  100c6b:	08 00 
  100c6d:	c6 05 c4 d6 96 00 00 	movb   $0x0,0x96d6c4
  100c74:	0f b6 05 c5 d6 96 00 	movzbl 0x96d6c5,%eax
  100c7b:	83 e0 f0             	and    $0xfffffff0,%eax
  100c7e:	83 c8 0e             	or     $0xe,%eax
  100c81:	83 e0 8f             	and    $0xffffff8f,%eax
  100c84:	83 c8 80             	or     $0xffffff80,%eax
  100c87:	a2 c5 d6 96 00       	mov    %al,0x96d6c5
  100c8c:	c1 ea 10             	shr    $0x10,%edx
  100c8f:	66 89 15 c6 d6 96 00 	mov    %dx,0x96d6c6
	SETGATE(idt[T_DEBUG],             0, CPU_GDT_KCODE, &Xdebug,        0);
  100c96:	ba fa 1a 10 00       	mov    $0x101afa,%edx
  100c9b:	66 89 15 c8 d6 96 00 	mov    %dx,0x96d6c8
  100ca2:	66 c7 05 ca d6 96 00 	movw   $0x8,0x96d6ca
  100ca9:	08 00 
  100cab:	c6 05 cc d6 96 00 00 	movb   $0x0,0x96d6cc
  100cb2:	0f b6 05 cd d6 96 00 	movzbl 0x96d6cd,%eax
  100cb9:	83 e0 f0             	and    $0xfffffff0,%eax
  100cbc:	83 c8 0e             	or     $0xe,%eax
  100cbf:	83 e0 8f             	and    $0xffffff8f,%eax
  100cc2:	83 c8 80             	or     $0xffffff80,%eax
  100cc5:	a2 cd d6 96 00       	mov    %al,0x96d6cd
  100cca:	c1 ea 10             	shr    $0x10,%edx
  100ccd:	66 89 15 ce d6 96 00 	mov    %dx,0x96d6ce
	SETGATE(idt[T_NMI],               0, CPU_GDT_KCODE, &Xnmi,          0);
  100cd4:	ba 04 1b 10 00       	mov    $0x101b04,%edx
  100cd9:	66 89 15 d0 d6 96 00 	mov    %dx,0x96d6d0
  100ce0:	66 c7 05 d2 d6 96 00 	movw   $0x8,0x96d6d2
  100ce7:	08 00 
  100ce9:	c6 05 d4 d6 96 00 00 	movb   $0x0,0x96d6d4
  100cf0:	0f b6 05 d5 d6 96 00 	movzbl 0x96d6d5,%eax
  100cf7:	83 e0 f0             	and    $0xfffffff0,%eax
  100cfa:	83 c8 0e             	or     $0xe,%eax
  100cfd:	83 e0 8f             	and    $0xffffff8f,%eax
  100d00:	83 c8 80             	or     $0xffffff80,%eax
  100d03:	a2 d5 d6 96 00       	mov    %al,0x96d6d5
  100d08:	c1 ea 10             	shr    $0x10,%edx
  100d0b:	66 89 15 d6 d6 96 00 	mov    %dx,0x96d6d6
	SETGATE(idt[T_BRKPT],             0, CPU_GDT_KCODE, &Xbrkpt,        3);
  100d12:	ba 0e 1b 10 00       	mov    $0x101b0e,%edx
  100d17:	66 89 15 d8 d6 96 00 	mov    %dx,0x96d6d8
  100d1e:	66 c7 05 da d6 96 00 	movw   $0x8,0x96d6da
  100d25:	08 00 
  100d27:	c6 05 dc d6 96 00 00 	movb   $0x0,0x96d6dc
  100d2e:	0f b6 05 dd d6 96 00 	movzbl 0x96d6dd,%eax
  100d35:	83 e0 f0             	and    $0xfffffff0,%eax
  100d38:	83 c8 0e             	or     $0xe,%eax
  100d3b:	83 e0 ef             	and    $0xffffffef,%eax
  100d3e:	83 c8 e0             	or     $0xffffffe0,%eax
  100d41:	a2 dd d6 96 00       	mov    %al,0x96d6dd
  100d46:	c1 ea 10             	shr    $0x10,%edx
  100d49:	66 89 15 de d6 96 00 	mov    %dx,0x96d6de
	SETGATE(idt[T_OFLOW],             0, CPU_GDT_KCODE, &Xoflow,        3);
  100d50:	ba 18 1b 10 00       	mov    $0x101b18,%edx
  100d55:	66 89 15 e0 d6 96 00 	mov    %dx,0x96d6e0
  100d5c:	66 c7 05 e2 d6 96 00 	movw   $0x8,0x96d6e2
  100d63:	08 00 
  100d65:	c6 05 e4 d6 96 00 00 	movb   $0x0,0x96d6e4
  100d6c:	0f b6 05 e5 d6 96 00 	movzbl 0x96d6e5,%eax
  100d73:	83 e0 f0             	and    $0xfffffff0,%eax
  100d76:	83 c8 0e             	or     $0xe,%eax
  100d79:	83 e0 ef             	and    $0xffffffef,%eax
  100d7c:	83 c8 e0             	or     $0xffffffe0,%eax
  100d7f:	a2 e5 d6 96 00       	mov    %al,0x96d6e5
  100d84:	c1 ea 10             	shr    $0x10,%edx
  100d87:	66 89 15 e6 d6 96 00 	mov    %dx,0x96d6e6
	SETGATE(idt[T_BOUND],             0, CPU_GDT_KCODE, &Xbound,        0);
  100d8e:	ba 22 1b 10 00       	mov    $0x101b22,%edx
  100d93:	66 89 15 e8 d6 96 00 	mov    %dx,0x96d6e8
  100d9a:	66 c7 05 ea d6 96 00 	movw   $0x8,0x96d6ea
  100da1:	08 00 
  100da3:	c6 05 ec d6 96 00 00 	movb   $0x0,0x96d6ec
  100daa:	0f b6 05 ed d6 96 00 	movzbl 0x96d6ed,%eax
  100db1:	83 e0 f0             	and    $0xfffffff0,%eax
  100db4:	83 c8 0e             	or     $0xe,%eax
  100db7:	83 e0 8f             	and    $0xffffff8f,%eax
  100dba:	83 c8 80             	or     $0xffffff80,%eax
  100dbd:	a2 ed d6 96 00       	mov    %al,0x96d6ed
  100dc2:	c1 ea 10             	shr    $0x10,%edx
  100dc5:	66 89 15 ee d6 96 00 	mov    %dx,0x96d6ee
	SETGATE(idt[T_ILLOP],             0, CPU_GDT_KCODE, &Xillop,        0);
  100dcc:	ba 2c 1b 10 00       	mov    $0x101b2c,%edx
  100dd1:	66 89 15 f0 d6 96 00 	mov    %dx,0x96d6f0
  100dd8:	66 c7 05 f2 d6 96 00 	movw   $0x8,0x96d6f2
  100ddf:	08 00 
  100de1:	c6 05 f4 d6 96 00 00 	movb   $0x0,0x96d6f4
  100de8:	0f b6 05 f5 d6 96 00 	movzbl 0x96d6f5,%eax
  100def:	83 e0 f0             	and    $0xfffffff0,%eax
  100df2:	83 c8 0e             	or     $0xe,%eax
  100df5:	83 e0 8f             	and    $0xffffff8f,%eax
  100df8:	83 c8 80             	or     $0xffffff80,%eax
  100dfb:	a2 f5 d6 96 00       	mov    %al,0x96d6f5
  100e00:	c1 ea 10             	shr    $0x10,%edx
  100e03:	66 89 15 f6 d6 96 00 	mov    %dx,0x96d6f6
	SETGATE(idt[T_DEVICE],            0, CPU_GDT_KCODE, &Xdevice,       0);
  100e0a:	ba 36 1b 10 00       	mov    $0x101b36,%edx
  100e0f:	66 89 15 f8 d6 96 00 	mov    %dx,0x96d6f8
  100e16:	66 c7 05 fa d6 96 00 	movw   $0x8,0x96d6fa
  100e1d:	08 00 
  100e1f:	c6 05 fc d6 96 00 00 	movb   $0x0,0x96d6fc
  100e26:	0f b6 05 fd d6 96 00 	movzbl 0x96d6fd,%eax
  100e2d:	83 e0 f0             	and    $0xfffffff0,%eax
  100e30:	83 c8 0e             	or     $0xe,%eax
  100e33:	83 e0 8f             	and    $0xffffff8f,%eax
  100e36:	83 c8 80             	or     $0xffffff80,%eax
  100e39:	a2 fd d6 96 00       	mov    %al,0x96d6fd
  100e3e:	c1 ea 10             	shr    $0x10,%edx
  100e41:	66 89 15 fe d6 96 00 	mov    %dx,0x96d6fe
	SETGATE(idt[T_DBLFLT],            0, CPU_GDT_KCODE, &Xdblflt,       0);
  100e48:	ba 40 1b 10 00       	mov    $0x101b40,%edx
  100e4d:	66 89 15 00 d7 96 00 	mov    %dx,0x96d700
  100e54:	66 c7 05 02 d7 96 00 	movw   $0x8,0x96d702
  100e5b:	08 00 
  100e5d:	c6 05 04 d7 96 00 00 	movb   $0x0,0x96d704
  100e64:	0f b6 05 05 d7 96 00 	movzbl 0x96d705,%eax
  100e6b:	83 e0 f0             	and    $0xfffffff0,%eax
  100e6e:	83 c8 0e             	or     $0xe,%eax
  100e71:	83 e0 8f             	and    $0xffffff8f,%eax
  100e74:	83 c8 80             	or     $0xffffff80,%eax
  100e77:	a2 05 d7 96 00       	mov    %al,0x96d705
  100e7c:	c1 ea 10             	shr    $0x10,%edx
  100e7f:	66 89 15 06 d7 96 00 	mov    %dx,0x96d706
	SETGATE(idt[T_TSS],               0, CPU_GDT_KCODE, &Xtss,          0);
  100e86:	ba 52 1b 10 00       	mov    $0x101b52,%edx
  100e8b:	66 89 15 10 d7 96 00 	mov    %dx,0x96d710
  100e92:	66 c7 05 12 d7 96 00 	movw   $0x8,0x96d712
  100e99:	08 00 
  100e9b:	c6 05 14 d7 96 00 00 	movb   $0x0,0x96d714
  100ea2:	0f b6 05 15 d7 96 00 	movzbl 0x96d715,%eax
  100ea9:	83 e0 f0             	and    $0xfffffff0,%eax
  100eac:	83 c8 0e             	or     $0xe,%eax
  100eaf:	83 e0 8f             	and    $0xffffff8f,%eax
  100eb2:	83 c8 80             	or     $0xffffff80,%eax
  100eb5:	a2 15 d7 96 00       	mov    %al,0x96d715
  100eba:	c1 ea 10             	shr    $0x10,%edx
  100ebd:	66 89 15 16 d7 96 00 	mov    %dx,0x96d716
	SETGATE(idt[T_SEGNP],             0, CPU_GDT_KCODE, &Xsegnp,        0);
  100ec4:	ba 5a 1b 10 00       	mov    $0x101b5a,%edx
  100ec9:	66 89 15 18 d7 96 00 	mov    %dx,0x96d718
  100ed0:	66 c7 05 1a d7 96 00 	movw   $0x8,0x96d71a
  100ed7:	08 00 
  100ed9:	c6 05 1c d7 96 00 00 	movb   $0x0,0x96d71c
  100ee0:	0f b6 05 1d d7 96 00 	movzbl 0x96d71d,%eax
  100ee7:	83 e0 f0             	and    $0xfffffff0,%eax
  100eea:	83 c8 0e             	or     $0xe,%eax
  100eed:	83 e0 8f             	and    $0xffffff8f,%eax
  100ef0:	83 c8 80             	or     $0xffffff80,%eax
  100ef3:	a2 1d d7 96 00       	mov    %al,0x96d71d
  100ef8:	c1 ea 10             	shr    $0x10,%edx
  100efb:	66 89 15 1e d7 96 00 	mov    %dx,0x96d71e
	SETGATE(idt[T_STACK],             0, CPU_GDT_KCODE, &Xstack,        0);
  100f02:	ba 62 1b 10 00       	mov    $0x101b62,%edx
  100f07:	66 89 15 20 d7 96 00 	mov    %dx,0x96d720
  100f0e:	66 c7 05 22 d7 96 00 	movw   $0x8,0x96d722
  100f15:	08 00 
  100f17:	c6 05 24 d7 96 00 00 	movb   $0x0,0x96d724
  100f1e:	0f b6 05 25 d7 96 00 	movzbl 0x96d725,%eax
  100f25:	83 e0 f0             	and    $0xfffffff0,%eax
  100f28:	83 c8 0e             	or     $0xe,%eax
  100f2b:	83 e0 8f             	and    $0xffffff8f,%eax
  100f2e:	83 c8 80             	or     $0xffffff80,%eax
  100f31:	a2 25 d7 96 00       	mov    %al,0x96d725
  100f36:	c1 ea 10             	shr    $0x10,%edx
  100f39:	66 89 15 26 d7 96 00 	mov    %dx,0x96d726
	SETGATE(idt[T_GPFLT],             0, CPU_GDT_KCODE, &Xgpflt,        0);
  100f40:	ba 6a 1b 10 00       	mov    $0x101b6a,%edx
  100f45:	66 89 15 28 d7 96 00 	mov    %dx,0x96d728
  100f4c:	66 c7 05 2a d7 96 00 	movw   $0x8,0x96d72a
  100f53:	08 00 
  100f55:	c6 05 2c d7 96 00 00 	movb   $0x0,0x96d72c
  100f5c:	0f b6 05 2d d7 96 00 	movzbl 0x96d72d,%eax
  100f63:	83 e0 f0             	and    $0xfffffff0,%eax
  100f66:	83 c8 0e             	or     $0xe,%eax
  100f69:	83 e0 8f             	and    $0xffffff8f,%eax
  100f6c:	83 c8 80             	or     $0xffffff80,%eax
  100f6f:	a2 2d d7 96 00       	mov    %al,0x96d72d
  100f74:	c1 ea 10             	shr    $0x10,%edx
  100f77:	66 89 15 2e d7 96 00 	mov    %dx,0x96d72e
	SETGATE(idt[T_PGFLT],             0, CPU_GDT_KCODE, &Xpgflt,        0);
  100f7e:	ba 72 1b 10 00       	mov    $0x101b72,%edx
  100f83:	66 89 15 30 d7 96 00 	mov    %dx,0x96d730
  100f8a:	66 c7 05 32 d7 96 00 	movw   $0x8,0x96d732
  100f91:	08 00 
  100f93:	c6 05 34 d7 96 00 00 	movb   $0x0,0x96d734
  100f9a:	0f b6 05 35 d7 96 00 	movzbl 0x96d735,%eax
  100fa1:	83 e0 f0             	and    $0xfffffff0,%eax
  100fa4:	83 c8 0e             	or     $0xe,%eax
  100fa7:	83 e0 8f             	and    $0xffffff8f,%eax
  100faa:	83 c8 80             	or     $0xffffff80,%eax
  100fad:	a2 35 d7 96 00       	mov    %al,0x96d735
  100fb2:	c1 ea 10             	shr    $0x10,%edx
  100fb5:	66 89 15 36 d7 96 00 	mov    %dx,0x96d736
	SETGATE(idt[T_FPERR],             0, CPU_GDT_KCODE, &Xfperr,        0);
  100fbc:	ba 84 1b 10 00       	mov    $0x101b84,%edx
  100fc1:	66 89 15 40 d7 96 00 	mov    %dx,0x96d740
  100fc8:	66 c7 05 42 d7 96 00 	movw   $0x8,0x96d742
  100fcf:	08 00 
  100fd1:	c6 05 44 d7 96 00 00 	movb   $0x0,0x96d744
  100fd8:	0f b6 05 45 d7 96 00 	movzbl 0x96d745,%eax
  100fdf:	83 e0 f0             	and    $0xfffffff0,%eax
  100fe2:	83 c8 0e             	or     $0xe,%eax
  100fe5:	83 e0 8f             	and    $0xffffff8f,%eax
  100fe8:	83 c8 80             	or     $0xffffff80,%eax
  100feb:	a2 45 d7 96 00       	mov    %al,0x96d745
  100ff0:	c1 ea 10             	shr    $0x10,%edx
  100ff3:	66 89 15 46 d7 96 00 	mov    %dx,0x96d746
	SETGATE(idt[T_ALIGN],             0, CPU_GDT_KCODE, &Xalign,        0);
  100ffa:	ba 8e 1b 10 00       	mov    $0x101b8e,%edx
  100fff:	66 89 15 48 d7 96 00 	mov    %dx,0x96d748
  101006:	66 c7 05 4a d7 96 00 	movw   $0x8,0x96d74a
  10100d:	08 00 
  10100f:	c6 05 4c d7 96 00 00 	movb   $0x0,0x96d74c
  101016:	0f b6 05 4d d7 96 00 	movzbl 0x96d74d,%eax
  10101d:	83 e0 f0             	and    $0xfffffff0,%eax
  101020:	83 c8 0e             	or     $0xe,%eax
  101023:	83 e0 8f             	and    $0xffffff8f,%eax
  101026:	83 c8 80             	or     $0xffffff80,%eax
  101029:	a2 4d d7 96 00       	mov    %al,0x96d74d
  10102e:	c1 ea 10             	shr    $0x10,%edx
  101031:	66 89 15 4e d7 96 00 	mov    %dx,0x96d74e
	SETGATE(idt[T_MCHK],              0, CPU_GDT_KCODE, &Xmchk,         0);
  101038:	ba 92 1b 10 00       	mov    $0x101b92,%edx
  10103d:	66 89 15 50 d7 96 00 	mov    %dx,0x96d750
  101044:	66 c7 05 52 d7 96 00 	movw   $0x8,0x96d752
  10104b:	08 00 
  10104d:	c6 05 54 d7 96 00 00 	movb   $0x0,0x96d754
  101054:	0f b6 05 55 d7 96 00 	movzbl 0x96d755,%eax
  10105b:	83 e0 f0             	and    $0xfffffff0,%eax
  10105e:	83 c8 0e             	or     $0xe,%eax
  101061:	83 e0 8f             	and    $0xffffff8f,%eax
  101064:	83 c8 80             	or     $0xffffff80,%eax
  101067:	a2 55 d7 96 00       	mov    %al,0x96d755
  10106c:	c1 ea 10             	shr    $0x10,%edx
  10106f:	66 89 15 56 d7 96 00 	mov    %dx,0x96d756

	SETGATE(idt[T_IRQ0+IRQ_TIMER],    0, CPU_GDT_KCODE, &Xirq_timer,    0);
  101076:	ba 98 1b 10 00       	mov    $0x101b98,%edx
  10107b:	66 89 15 c0 d7 96 00 	mov    %dx,0x96d7c0
  101082:	66 c7 05 c2 d7 96 00 	movw   $0x8,0x96d7c2
  101089:	08 00 
  10108b:	c6 05 c4 d7 96 00 00 	movb   $0x0,0x96d7c4
  101092:	0f b6 05 c5 d7 96 00 	movzbl 0x96d7c5,%eax
  101099:	83 e0 f0             	and    $0xfffffff0,%eax
  10109c:	83 c8 0e             	or     $0xe,%eax
  10109f:	83 e0 8f             	and    $0xffffff8f,%eax
  1010a2:	83 c8 80             	or     $0xffffff80,%eax
  1010a5:	a2 c5 d7 96 00       	mov    %al,0x96d7c5
  1010aa:	c1 ea 10             	shr    $0x10,%edx
  1010ad:	66 89 15 c6 d7 96 00 	mov    %dx,0x96d7c6
	SETGATE(idt[T_IRQ0+IRQ_KBD],      0, CPU_GDT_KCODE, &Xirq_kbd,      0);
  1010b4:	ba 9e 1b 10 00       	mov    $0x101b9e,%edx
  1010b9:	66 89 15 c8 d7 96 00 	mov    %dx,0x96d7c8
  1010c0:	66 c7 05 ca d7 96 00 	movw   $0x8,0x96d7ca
  1010c7:	08 00 
  1010c9:	c6 05 cc d7 96 00 00 	movb   $0x0,0x96d7cc
  1010d0:	0f b6 05 cd d7 96 00 	movzbl 0x96d7cd,%eax
  1010d7:	83 e0 f0             	and    $0xfffffff0,%eax
  1010da:	83 c8 0e             	or     $0xe,%eax
  1010dd:	83 e0 8f             	and    $0xffffff8f,%eax
  1010e0:	83 c8 80             	or     $0xffffff80,%eax
  1010e3:	a2 cd d7 96 00       	mov    %al,0x96d7cd
  1010e8:	c1 ea 10             	shr    $0x10,%edx
  1010eb:	66 89 15 ce d7 96 00 	mov    %dx,0x96d7ce
	SETGATE(idt[T_IRQ0+IRQ_SLAVE],    0, CPU_GDT_KCODE, &Xirq_slave,    0);
  1010f2:	ba a4 1b 10 00       	mov    $0x101ba4,%edx
  1010f7:	66 89 15 d0 d7 96 00 	mov    %dx,0x96d7d0
  1010fe:	66 c7 05 d2 d7 96 00 	movw   $0x8,0x96d7d2
  101105:	08 00 
  101107:	c6 05 d4 d7 96 00 00 	movb   $0x0,0x96d7d4
  10110e:	0f b6 05 d5 d7 96 00 	movzbl 0x96d7d5,%eax
  101115:	83 e0 f0             	and    $0xfffffff0,%eax
  101118:	83 c8 0e             	or     $0xe,%eax
  10111b:	83 e0 8f             	and    $0xffffff8f,%eax
  10111e:	83 c8 80             	or     $0xffffff80,%eax
  101121:	a2 d5 d7 96 00       	mov    %al,0x96d7d5
  101126:	c1 ea 10             	shr    $0x10,%edx
  101129:	66 89 15 d6 d7 96 00 	mov    %dx,0x96d7d6
	SETGATE(idt[T_IRQ0+IRQ_SERIAL24], 0, CPU_GDT_KCODE, &Xirq_serial2,  0);
  101130:	ba aa 1b 10 00       	mov    $0x101baa,%edx
  101135:	66 89 15 d8 d7 96 00 	mov    %dx,0x96d7d8
  10113c:	66 c7 05 da d7 96 00 	movw   $0x8,0x96d7da
  101143:	08 00 
  101145:	c6 05 dc d7 96 00 00 	movb   $0x0,0x96d7dc
  10114c:	0f b6 05 dd d7 96 00 	movzbl 0x96d7dd,%eax
  101153:	83 e0 f0             	and    $0xfffffff0,%eax
  101156:	83 c8 0e             	or     $0xe,%eax
  101159:	83 e0 8f             	and    $0xffffff8f,%eax
  10115c:	83 c8 80             	or     $0xffffff80,%eax
  10115f:	a2 dd d7 96 00       	mov    %al,0x96d7dd
  101164:	c1 ea 10             	shr    $0x10,%edx
  101167:	66 89 15 de d7 96 00 	mov    %dx,0x96d7de
	SETGATE(idt[T_IRQ0+IRQ_SERIAL13], 0, CPU_GDT_KCODE, &Xirq_serial1,  0);
  10116e:	ba b0 1b 10 00       	mov    $0x101bb0,%edx
  101173:	66 89 15 e0 d7 96 00 	mov    %dx,0x96d7e0
  10117a:	66 c7 05 e2 d7 96 00 	movw   $0x8,0x96d7e2
  101181:	08 00 
  101183:	c6 05 e4 d7 96 00 00 	movb   $0x0,0x96d7e4
  10118a:	0f b6 05 e5 d7 96 00 	movzbl 0x96d7e5,%eax
  101191:	83 e0 f0             	and    $0xfffffff0,%eax
  101194:	83 c8 0e             	or     $0xe,%eax
  101197:	83 e0 8f             	and    $0xffffff8f,%eax
  10119a:	83 c8 80             	or     $0xffffff80,%eax
  10119d:	a2 e5 d7 96 00       	mov    %al,0x96d7e5
  1011a2:	c1 ea 10             	shr    $0x10,%edx
  1011a5:	66 89 15 e6 d7 96 00 	mov    %dx,0x96d7e6
	SETGATE(idt[T_IRQ0+IRQ_LPT2],     0, CPU_GDT_KCODE, &Xirq_lpt,      0);
  1011ac:	ba b6 1b 10 00       	mov    $0x101bb6,%edx
  1011b1:	66 89 15 e8 d7 96 00 	mov    %dx,0x96d7e8
  1011b8:	66 c7 05 ea d7 96 00 	movw   $0x8,0x96d7ea
  1011bf:	08 00 
  1011c1:	c6 05 ec d7 96 00 00 	movb   $0x0,0x96d7ec
  1011c8:	0f b6 05 ed d7 96 00 	movzbl 0x96d7ed,%eax
  1011cf:	83 e0 f0             	and    $0xfffffff0,%eax
  1011d2:	83 c8 0e             	or     $0xe,%eax
  1011d5:	83 e0 8f             	and    $0xffffff8f,%eax
  1011d8:	83 c8 80             	or     $0xffffff80,%eax
  1011db:	a2 ed d7 96 00       	mov    %al,0x96d7ed
  1011e0:	c1 ea 10             	shr    $0x10,%edx
  1011e3:	66 89 15 ee d7 96 00 	mov    %dx,0x96d7ee
	SETGATE(idt[T_IRQ0+IRQ_FLOPPY],   0, CPU_GDT_KCODE, &Xirq_floppy,   0);
  1011ea:	ba bc 1b 10 00       	mov    $0x101bbc,%edx
  1011ef:	66 89 15 f0 d7 96 00 	mov    %dx,0x96d7f0
  1011f6:	66 c7 05 f2 d7 96 00 	movw   $0x8,0x96d7f2
  1011fd:	08 00 
  1011ff:	c6 05 f4 d7 96 00 00 	movb   $0x0,0x96d7f4
  101206:	0f b6 05 f5 d7 96 00 	movzbl 0x96d7f5,%eax
  10120d:	83 e0 f0             	and    $0xfffffff0,%eax
  101210:	83 c8 0e             	or     $0xe,%eax
  101213:	83 e0 8f             	and    $0xffffff8f,%eax
  101216:	83 c8 80             	or     $0xffffff80,%eax
  101219:	a2 f5 d7 96 00       	mov    %al,0x96d7f5
  10121e:	c1 ea 10             	shr    $0x10,%edx
  101221:	66 89 15 f6 d7 96 00 	mov    %dx,0x96d7f6
	SETGATE(idt[T_IRQ0+IRQ_SPURIOUS], 0, CPU_GDT_KCODE, &Xirq_spurious, 0);
  101228:	ba c2 1b 10 00       	mov    $0x101bc2,%edx
  10122d:	66 89 15 f8 d7 96 00 	mov    %dx,0x96d7f8
  101234:	66 c7 05 fa d7 96 00 	movw   $0x8,0x96d7fa
  10123b:	08 00 
  10123d:	c6 05 fc d7 96 00 00 	movb   $0x0,0x96d7fc
  101244:	0f b6 05 fd d7 96 00 	movzbl 0x96d7fd,%eax
  10124b:	83 e0 f0             	and    $0xfffffff0,%eax
  10124e:	83 c8 0e             	or     $0xe,%eax
  101251:	83 e0 8f             	and    $0xffffff8f,%eax
  101254:	83 c8 80             	or     $0xffffff80,%eax
  101257:	a2 fd d7 96 00       	mov    %al,0x96d7fd
  10125c:	c1 ea 10             	shr    $0x10,%edx
  10125f:	66 89 15 fe d7 96 00 	mov    %dx,0x96d7fe
	SETGATE(idt[T_IRQ0+IRQ_RTC],      0, CPU_GDT_KCODE, &Xirq_rtc,      0);
  101266:	ba c8 1b 10 00       	mov    $0x101bc8,%edx
  10126b:	66 89 15 00 d8 96 00 	mov    %dx,0x96d800
  101272:	66 c7 05 02 d8 96 00 	movw   $0x8,0x96d802
  101279:	08 00 
  10127b:	c6 05 04 d8 96 00 00 	movb   $0x0,0x96d804
  101282:	0f b6 05 05 d8 96 00 	movzbl 0x96d805,%eax
  101289:	83 e0 f0             	and    $0xfffffff0,%eax
  10128c:	83 c8 0e             	or     $0xe,%eax
  10128f:	83 e0 8f             	and    $0xffffff8f,%eax
  101292:	83 c8 80             	or     $0xffffff80,%eax
  101295:	a2 05 d8 96 00       	mov    %al,0x96d805
  10129a:	c1 ea 10             	shr    $0x10,%edx
  10129d:	66 89 15 06 d8 96 00 	mov    %dx,0x96d806
	SETGATE(idt[T_IRQ0+9],            0, CPU_GDT_KCODE, &Xirq9,         0);
  1012a4:	ba ce 1b 10 00       	mov    $0x101bce,%edx
  1012a9:	66 89 15 08 d8 96 00 	mov    %dx,0x96d808
  1012b0:	66 c7 05 0a d8 96 00 	movw   $0x8,0x96d80a
  1012b7:	08 00 
  1012b9:	c6 05 0c d8 96 00 00 	movb   $0x0,0x96d80c
  1012c0:	0f b6 05 0d d8 96 00 	movzbl 0x96d80d,%eax
  1012c7:	83 e0 f0             	and    $0xfffffff0,%eax
  1012ca:	83 c8 0e             	or     $0xe,%eax
  1012cd:	83 e0 8f             	and    $0xffffff8f,%eax
  1012d0:	83 c8 80             	or     $0xffffff80,%eax
  1012d3:	a2 0d d8 96 00       	mov    %al,0x96d80d
  1012d8:	c1 ea 10             	shr    $0x10,%edx
  1012db:	66 89 15 0e d8 96 00 	mov    %dx,0x96d80e
	SETGATE(idt[T_IRQ0+10],           0, CPU_GDT_KCODE, &Xirq10,        0);
  1012e2:	ba d4 1b 10 00       	mov    $0x101bd4,%edx
  1012e7:	66 89 15 10 d8 96 00 	mov    %dx,0x96d810
  1012ee:	66 c7 05 12 d8 96 00 	movw   $0x8,0x96d812
  1012f5:	08 00 
  1012f7:	c6 05 14 d8 96 00 00 	movb   $0x0,0x96d814
  1012fe:	0f b6 05 15 d8 96 00 	movzbl 0x96d815,%eax
  101305:	83 e0 f0             	and    $0xfffffff0,%eax
  101308:	83 c8 0e             	or     $0xe,%eax
  10130b:	83 e0 8f             	and    $0xffffff8f,%eax
  10130e:	83 c8 80             	or     $0xffffff80,%eax
  101311:	a2 15 d8 96 00       	mov    %al,0x96d815
  101316:	c1 ea 10             	shr    $0x10,%edx
  101319:	66 89 15 16 d8 96 00 	mov    %dx,0x96d816
	SETGATE(idt[T_IRQ0+11],           0, CPU_GDT_KCODE, &Xirq11,        0);
  101320:	b8 da 1b 10 00       	mov    $0x101bda,%eax
  101325:	66 a3 18 d8 96 00    	mov    %ax,0x96d818
  10132b:	66 c7 05 1a d8 96 00 	movw   $0x8,0x96d81a
  101332:	08 00 
  101334:	c6 05 1c d8 96 00 00 	movb   $0x0,0x96d81c
  10133b:	0f b6 05 1d d8 96 00 	movzbl 0x96d81d,%eax
  101342:	83 e0 f0             	and    $0xfffffff0,%eax
  101345:	83 c8 0e             	or     $0xe,%eax
  101348:	83 e0 8e             	and    $0xffffff8e,%eax
  10134b:	83 c8 80             	or     $0xffffff80,%eax
  10134e:	a2 1d d8 96 00       	mov    %al,0x96d81d
  101353:	b8 da 1b 10 00       	mov    $0x101bda,%eax
  101358:	c1 e8 10             	shr    $0x10,%eax
  10135b:	66 a3 1e d8 96 00    	mov    %ax,0x96d81e
	SETGATE(idt[T_IRQ0+IRQ_MOUSE],    0, CPU_GDT_KCODE, &Xirq_mouse,    0);
  101361:	ba e0 1b 10 00       	mov    $0x101be0,%edx
  101366:	66 89 15 20 d8 96 00 	mov    %dx,0x96d820
  10136d:	66 c7 05 22 d8 96 00 	movw   $0x8,0x96d822
  101374:	08 00 
  101376:	c6 05 24 d8 96 00 00 	movb   $0x0,0x96d824
  10137d:	0f b6 05 25 d8 96 00 	movzbl 0x96d825,%eax
  101384:	83 e0 f0             	and    $0xfffffff0,%eax
  101387:	83 c8 0e             	or     $0xe,%eax
  10138a:	83 e0 8f             	and    $0xffffff8f,%eax
  10138d:	83 c8 80             	or     $0xffffff80,%eax
  101390:	a2 25 d8 96 00       	mov    %al,0x96d825
  101395:	c1 ea 10             	shr    $0x10,%edx
  101398:	66 89 15 26 d8 96 00 	mov    %dx,0x96d826
	SETGATE(idt[T_IRQ0+IRQ_COPROCESSOR], 0, CPU_GDT_KCODE, &Xirq_coproc, 0);
  10139f:	ba e6 1b 10 00       	mov    $0x101be6,%edx
  1013a4:	66 89 15 28 d8 96 00 	mov    %dx,0x96d828
  1013ab:	66 c7 05 2a d8 96 00 	movw   $0x8,0x96d82a
  1013b2:	08 00 
  1013b4:	c6 05 2c d8 96 00 00 	movb   $0x0,0x96d82c
  1013bb:	0f b6 05 2d d8 96 00 	movzbl 0x96d82d,%eax
  1013c2:	83 e0 f0             	and    $0xfffffff0,%eax
  1013c5:	83 c8 0e             	or     $0xe,%eax
  1013c8:	83 e0 8f             	and    $0xffffff8f,%eax
  1013cb:	83 c8 80             	or     $0xffffff80,%eax
  1013ce:	a2 2d d8 96 00       	mov    %al,0x96d82d
  1013d3:	c1 ea 10             	shr    $0x10,%edx
  1013d6:	66 89 15 2e d8 96 00 	mov    %dx,0x96d82e
	SETGATE(idt[T_IRQ0+IRQ_IDE1],     0, CPU_GDT_KCODE, &Xirq_ide1,     0);
  1013dd:	ba ec 1b 10 00       	mov    $0x101bec,%edx
  1013e2:	66 89 15 30 d8 96 00 	mov    %dx,0x96d830
  1013e9:	66 c7 05 32 d8 96 00 	movw   $0x8,0x96d832
  1013f0:	08 00 
  1013f2:	c6 05 34 d8 96 00 00 	movb   $0x0,0x96d834
  1013f9:	0f b6 05 35 d8 96 00 	movzbl 0x96d835,%eax
  101400:	83 e0 f0             	and    $0xfffffff0,%eax
  101403:	83 c8 0e             	or     $0xe,%eax
  101406:	83 e0 8f             	and    $0xffffff8f,%eax
  101409:	83 c8 80             	or     $0xffffff80,%eax
  10140c:	a2 35 d8 96 00       	mov    %al,0x96d835
  101411:	c1 ea 10             	shr    $0x10,%edx
  101414:	66 89 15 36 d8 96 00 	mov    %dx,0x96d836
	SETGATE(idt[T_IRQ0+IRQ_IDE2],     0, CPU_GDT_KCODE, &Xirq_ide2,     0);
  10141b:	ba f2 1b 10 00       	mov    $0x101bf2,%edx
  101420:	66 89 15 38 d8 96 00 	mov    %dx,0x96d838
  101427:	66 c7 05 3a d8 96 00 	movw   $0x8,0x96d83a
  10142e:	08 00 
  101430:	c6 05 3c d8 96 00 00 	movb   $0x0,0x96d83c
  101437:	0f b6 05 3d d8 96 00 	movzbl 0x96d83d,%eax
  10143e:	83 e0 f0             	and    $0xfffffff0,%eax
  101441:	83 c8 0e             	or     $0xe,%eax
  101444:	83 e0 8f             	and    $0xffffff8f,%eax
  101447:	83 c8 80             	or     $0xffffff80,%eax
  10144a:	a2 3d d8 96 00       	mov    %al,0x96d83d
  10144f:	c1 ea 10             	shr    $0x10,%edx
  101452:	66 89 15 3e d8 96 00 	mov    %dx,0x96d83e

	// Use DPL=3 here because system calls are explicitly invoked
	// by the user process (with "int $T_SYSCALL").
	SETGATE(idt[T_SYSCALL],           0, CPU_GDT_KCODE, &Xsyscall,      3);
  101459:	ba f8 1b 10 00       	mov    $0x101bf8,%edx
  10145e:	66 89 15 40 d8 96 00 	mov    %dx,0x96d840
  101465:	66 c7 05 42 d8 96 00 	movw   $0x8,0x96d842
  10146c:	08 00 
  10146e:	c6 05 44 d8 96 00 00 	movb   $0x0,0x96d844
  101475:	0f b6 05 45 d8 96 00 	movzbl 0x96d845,%eax
  10147c:	83 e0 f0             	and    $0xfffffff0,%eax
  10147f:	83 c8 0e             	or     $0xe,%eax
  101482:	83 e0 ef             	and    $0xffffffef,%eax
  101485:	83 c8 e0             	or     $0xffffffe0,%eax
  101488:	a2 45 d8 96 00       	mov    %al,0x96d845
  10148d:	c1 ea 10             	shr    $0x10,%edx
  101490:	66 89 15 46 d8 96 00 	mov    %dx,0x96d846

	/* default */
	SETGATE(idt[T_DEFAULT],           0, CPU_GDT_KCODE, &Xdefault,      0);
  101497:	ba fe 1b 10 00       	mov    $0x101bfe,%edx
  10149c:	66 89 15 b0 de 96 00 	mov    %dx,0x96deb0
  1014a3:	66 c7 05 b2 de 96 00 	movw   $0x8,0x96deb2
  1014aa:	08 00 
  1014ac:	c6 05 b4 de 96 00 00 	movb   $0x0,0x96deb4
  1014b3:	0f b6 05 b5 de 96 00 	movzbl 0x96deb5,%eax
  1014ba:	83 e0 f0             	and    $0xfffffff0,%eax
  1014bd:	83 c8 0e             	or     $0xe,%eax
  1014c0:	83 e0 8f             	and    $0xffffff8f,%eax
  1014c3:	83 c8 80             	or     $0xffffff80,%eax
  1014c6:	a2 b5 de 96 00       	mov    %al,0x96deb5
  1014cb:	c1 ea 10             	shr    $0x10,%edx
  1014ce:	66 89 15 b6 de 96 00 	mov    %dx,0x96deb6

	asm volatile("lidt %0" : : "m" (idt_pd));
  1014d5:	0f 01 1d 00 93 10 00 	lidtl  0x109300
  1014dc:	c3                   	ret    

001014dd <intr_init>:
}

void
intr_init(void)
{
	if (intr_inited == TRUE)
  1014dd:	0f b6 05 40 ce 12 00 	movzbl 0x12ce40,%eax
  1014e4:	3c 01                	cmp    $0x1,%al
  1014e6:	74 17                	je     1014ff <intr_init+0x22>
	asm volatile("lidt %0" : : "m" (idt_pd));
}

void
intr_init(void)
{
  1014e8:	83 ec 0c             	sub    $0xc,%esp
	if (intr_inited == TRUE)
		return;

  pic_init();
  1014eb:	e8 55 00 00 00       	call   101545 <pic_init>
	intr_init_idt();
  1014f0:	e8 0c f7 ff ff       	call   100c01 <intr_init_idt>
	intr_inited = TRUE;
  1014f5:	c6 05 40 ce 12 00 01 	movb   $0x1,0x12ce40
}
  1014fc:	83 c4 0c             	add    $0xc,%esp
  1014ff:	f3 c3                	repz ret 

00101501 <intr_enable>:

void
intr_enable(uint8_t irq)
{
  101501:	83 ec 0c             	sub    $0xc,%esp
  101504:	8b 44 24 10          	mov    0x10(%esp),%eax
	if (irq >= 16)
  101508:	3c 0f                	cmp    $0xf,%al
  10150a:	76 04                	jbe    101510 <intr_enable+0xf>
		return;
	pic_enable(irq);
}
  10150c:	83 c4 0c             	add    $0xc,%esp
  10150f:	c3                   	ret    
void
intr_enable(uint8_t irq)
{
	if (irq >= 16)
		return;
	pic_enable(irq);
  101510:	83 ec 0c             	sub    $0xc,%esp
  101513:	0f b6 c0             	movzbl %al,%eax
  101516:	50                   	push   %eax
  101517:	e8 56 01 00 00       	call   101672 <pic_enable>
  10151c:	83 c4 10             	add    $0x10,%esp
  10151f:	eb eb                	jmp    10150c <intr_enable+0xb>

00101521 <intr_eoi>:
}

void
intr_eoi(void)
{
  101521:	83 ec 0c             	sub    $0xc,%esp
	pic_eoi();
  101524:	e8 6d 01 00 00       	call   101696 <pic_eoi>
}
  101529:	83 c4 0c             	add    $0xc,%esp
  10152c:	c3                   	ret    

0010152d <intr_local_enable>:

void
intr_local_enable(void)
{
  10152d:	83 ec 0c             	sub    $0xc,%esp
	sti();
  101530:	e8 da 11 00 00       	call   10270f <sti>
}
  101535:	83 c4 0c             	add    $0xc,%esp
  101538:	c3                   	ret    

00101539 <intr_local_disable>:

void
intr_local_disable(void)
{
  101539:	83 ec 0c             	sub    $0xc,%esp
	cli();
  10153c:	e8 cc 11 00 00       	call   10270d <cli>
}
  101541:	83 c4 0c             	add    $0xc,%esp
  101544:	c3                   	ret    

00101545 <pic_init>:

/* Initialize the 8259A interrupt controllers. */
void
pic_init(void)
{
	if (pic_inited == TRUE)		// only do once on bootstrap CPU
  101545:	80 3d 41 ce 12 00 01 	cmpb   $0x1,0x12ce41
  10154c:	0f 84 ee 00 00 00    	je     101640 <pic_init+0xfb>
static bool pic_inited = FALSE;

/* Initialize the 8259A interrupt controllers. */
void
pic_init(void)
{
  101552:	83 ec 14             	sub    $0x14,%esp
	if (pic_inited == TRUE)		// only do once on bootstrap CPU
		return;
	pic_inited = TRUE;
  101555:	c6 05 41 ce 12 00 01 	movb   $0x1,0x12ce41

	/* mask all interrupts */
	outb(IO_PIC1+1, 0xff);
  10155c:	68 ff 00 00 00       	push   $0xff
  101561:	6a 21                	push   $0x21
  101563:	e8 6c 12 00 00       	call   1027d4 <outb>
	outb(IO_PIC2+1, 0xff);
  101568:	83 c4 08             	add    $0x8,%esp
  10156b:	68 ff 00 00 00       	push   $0xff
  101570:	68 a1 00 00 00       	push   $0xa1
  101575:	e8 5a 12 00 00       	call   1027d4 <outb>

	// ICW1:  0001g0hi
	//    g:  0 = edge triggering, 1 = level triggering
	//    h:  0 = cascaded PICs, 1 = master only
	//    i:  0 = no ICW4, 1 = ICW4 required
	outb(IO_PIC1, 0x11);
  10157a:	83 c4 08             	add    $0x8,%esp
  10157d:	6a 11                	push   $0x11
  10157f:	6a 20                	push   $0x20
  101581:	e8 4e 12 00 00       	call   1027d4 <outb>

	// ICW2:  Vector offset
	outb(IO_PIC1+1, T_IRQ0);
  101586:	83 c4 08             	add    $0x8,%esp
  101589:	6a 20                	push   $0x20
  10158b:	6a 21                	push   $0x21
  10158d:	e8 42 12 00 00       	call   1027d4 <outb>

	// ICW3:  bit mask of IR lines connected to slave PICs (master PIC),
	//        3-bit No of IR line at which slave connects to master(slave PIC).
	outb(IO_PIC1+1, 1<<IRQ_SLAVE);
  101592:	83 c4 08             	add    $0x8,%esp
  101595:	6a 04                	push   $0x4
  101597:	6a 21                	push   $0x21
  101599:	e8 36 12 00 00       	call   1027d4 <outb>
	//    m:  0 = slave PIC, 1 = master PIC
	//	  (ignored when b is 0, as the master/slave role
	//	  can be hardwired).
	//    a:  1 = Automatic EOI mode
	//    p:  0 = MCS-80/85 mode, 1 = intel x86 mode
	outb(IO_PIC1+1, 0x1);
  10159e:	83 c4 08             	add    $0x8,%esp
  1015a1:	6a 01                	push   $0x1
  1015a3:	6a 21                	push   $0x21
  1015a5:	e8 2a 12 00 00       	call   1027d4 <outb>

	// Set up slave (8259A-2)
	outb(IO_PIC2, 0x11);			// ICW1
  1015aa:	83 c4 08             	add    $0x8,%esp
  1015ad:	6a 11                	push   $0x11
  1015af:	68 a0 00 00 00       	push   $0xa0
  1015b4:	e8 1b 12 00 00       	call   1027d4 <outb>
	outb(IO_PIC2+1, T_IRQ0 + 8);		// ICW2
  1015b9:	83 c4 08             	add    $0x8,%esp
  1015bc:	6a 28                	push   $0x28
  1015be:	68 a1 00 00 00       	push   $0xa1
  1015c3:	e8 0c 12 00 00       	call   1027d4 <outb>
	outb(IO_PIC2+1, IRQ_SLAVE);		// ICW3
  1015c8:	83 c4 08             	add    $0x8,%esp
  1015cb:	6a 02                	push   $0x2
  1015cd:	68 a1 00 00 00       	push   $0xa1
  1015d2:	e8 fd 11 00 00       	call   1027d4 <outb>
	// NB Automatic EOI mode doesn't tend to work on the slave.
	// Linux source code says it's "to be investigated".
	outb(IO_PIC2+1, 0x01);			// ICW4
  1015d7:	83 c4 08             	add    $0x8,%esp
  1015da:	6a 01                	push   $0x1
  1015dc:	68 a1 00 00 00       	push   $0xa1
  1015e1:	e8 ee 11 00 00       	call   1027d4 <outb>

	// OCW3:  0ef01prs
	//   ef:  0x = NOP, 10 = clear specific mask, 11 = set specific mask
	//    p:  0 = no polling, 1 = polling mode
	//   rs:  0x = NOP, 10 = read IRR, 11 = read ISR
	outb(IO_PIC1, 0x68);             /* clear specific mask */
  1015e6:	83 c4 08             	add    $0x8,%esp
  1015e9:	6a 68                	push   $0x68
  1015eb:	6a 20                	push   $0x20
  1015ed:	e8 e2 11 00 00       	call   1027d4 <outb>
	outb(IO_PIC1, 0x0a);             /* read IRR by default */
  1015f2:	83 c4 08             	add    $0x8,%esp
  1015f5:	6a 0a                	push   $0xa
  1015f7:	6a 20                	push   $0x20
  1015f9:	e8 d6 11 00 00       	call   1027d4 <outb>

	outb(IO_PIC2, 0x68);               /* OCW3 */
  1015fe:	83 c4 08             	add    $0x8,%esp
  101601:	6a 68                	push   $0x68
  101603:	68 a0 00 00 00       	push   $0xa0
  101608:	e8 c7 11 00 00       	call   1027d4 <outb>
	outb(IO_PIC2, 0x0a);               /* OCW3 */
  10160d:	83 c4 08             	add    $0x8,%esp
  101610:	6a 0a                	push   $0xa
  101612:	68 a0 00 00 00       	push   $0xa0
  101617:	e8 b8 11 00 00       	call   1027d4 <outb>

	// mask all interrupts
	outb(IO_PIC1+1, 0xFF);
  10161c:	83 c4 08             	add    $0x8,%esp
  10161f:	68 ff 00 00 00       	push   $0xff
  101624:	6a 21                	push   $0x21
  101626:	e8 a9 11 00 00       	call   1027d4 <outb>
	outb(IO_PIC2+1, 0xFF);
  10162b:	83 c4 08             	add    $0x8,%esp
  10162e:	68 ff 00 00 00       	push   $0xff
  101633:	68 a1 00 00 00       	push   $0xa1
  101638:	e8 97 11 00 00       	call   1027d4 <outb>
}
  10163d:	83 c4 1c             	add    $0x1c,%esp
  101640:	f3 c3                	repz ret 

00101642 <pic_setmask>:

void
pic_setmask(uint16_t mask)
{
  101642:	53                   	push   %ebx
  101643:	83 ec 10             	sub    $0x10,%esp
  101646:	8b 5c 24 18          	mov    0x18(%esp),%ebx
	irqmask = mask;
  10164a:	66 89 1d 06 93 10 00 	mov    %bx,0x109306
	outb(IO_PIC1+1, (char)mask);
  101651:	0f b6 c3             	movzbl %bl,%eax
  101654:	50                   	push   %eax
  101655:	6a 21                	push   $0x21
  101657:	e8 78 11 00 00       	call   1027d4 <outb>
	outb(IO_PIC2+1, (char)(mask >> 8));
  10165c:	83 c4 08             	add    $0x8,%esp
  10165f:	0f b6 df             	movzbl %bh,%ebx
  101662:	53                   	push   %ebx
  101663:	68 a1 00 00 00       	push   $0xa1
  101668:	e8 67 11 00 00       	call   1027d4 <outb>
}
  10166d:	83 c4 18             	add    $0x18,%esp
  101670:	5b                   	pop    %ebx
  101671:	c3                   	ret    

00101672 <pic_enable>:

void
pic_enable(int irq)
{
  101672:	83 ec 18             	sub    $0x18,%esp
	pic_setmask(irqmask & ~(1 << irq));
  101675:	b8 01 00 00 00       	mov    $0x1,%eax
  10167a:	8b 4c 24 1c          	mov    0x1c(%esp),%ecx
  10167e:	d3 e0                	shl    %cl,%eax
  101680:	f7 d0                	not    %eax
  101682:	66 23 05 06 93 10 00 	and    0x109306,%ax
  101689:	0f b7 c0             	movzwl %ax,%eax
  10168c:	50                   	push   %eax
  10168d:	e8 b0 ff ff ff       	call   101642 <pic_setmask>
}
  101692:	83 c4 1c             	add    $0x1c,%esp
  101695:	c3                   	ret    

00101696 <pic_eoi>:

void
pic_eoi(void)
{
  101696:	83 ec 14             	sub    $0x14,%esp
	// OCW2: rse00xxx
	//   r: rotate
	//   s: specific
	//   e: end-of-interrupt
	// xxx: specific interrupt line
	outb(IO_PIC1, 0x20);
  101699:	6a 20                	push   $0x20
  10169b:	6a 20                	push   $0x20
  10169d:	e8 32 11 00 00       	call   1027d4 <outb>
	outb(IO_PIC2, 0x20);
  1016a2:	83 c4 08             	add    $0x8,%esp
  1016a5:	6a 20                	push   $0x20
  1016a7:	68 a0 00 00 00       	push   $0xa0
  1016ac:	e8 23 11 00 00       	call   1027d4 <outb>
}
  1016b1:	83 c4 1c             	add    $0x1c,%esp
  1016b4:	c3                   	ret    

001016b5 <pic_reset>:

void
pic_reset(void)
{
  1016b5:	83 ec 14             	sub    $0x14,%esp
	// mask all interrupts
	outb(IO_PIC1+1, 0x00);
  1016b8:	6a 00                	push   $0x0
  1016ba:	6a 21                	push   $0x21
  1016bc:	e8 13 11 00 00       	call   1027d4 <outb>
	outb(IO_PIC2+1, 0x00);
  1016c1:	83 c4 08             	add    $0x8,%esp
  1016c4:	6a 00                	push   $0x0
  1016c6:	68 a1 00 00 00       	push   $0xa1
  1016cb:	e8 04 11 00 00       	call   1027d4 <outb>

	// ICW1:  0001g0hi
	//    g:  0 = edge triggering, 1 = level triggering
	//    h:  0 = cascaded PICs, 1 = master only
	//    i:  0 = no ICW4, 1 = ICW4 required
	outb(IO_PIC1, 0x11);
  1016d0:	83 c4 08             	add    $0x8,%esp
  1016d3:	6a 11                	push   $0x11
  1016d5:	6a 20                	push   $0x20
  1016d7:	e8 f8 10 00 00       	call   1027d4 <outb>

	// ICW2:  Vector offset
	outb(IO_PIC1+1, T_IRQ0);
  1016dc:	83 c4 08             	add    $0x8,%esp
  1016df:	6a 20                	push   $0x20
  1016e1:	6a 21                	push   $0x21
  1016e3:	e8 ec 10 00 00       	call   1027d4 <outb>

	// ICW3:  bit mask of IR lines connected to slave PICs (master PIC),
	//        3-bit No of IR line at which slave connects to master(slave PIC).
	outb(IO_PIC1+1, 1<<IRQ_SLAVE);
  1016e8:	83 c4 08             	add    $0x8,%esp
  1016eb:	6a 04                	push   $0x4
  1016ed:	6a 21                	push   $0x21
  1016ef:	e8 e0 10 00 00       	call   1027d4 <outb>
	//    m:  0 = slave PIC, 1 = master PIC
	//	  (ignored when b is 0, as the master/slave role
	//	  can be hardwired).
	//    a:  1 = Automatic EOI mode
	//    p:  0 = MCS-80/85 mode, 1 = intel x86 mode
	outb(IO_PIC1+1, 0x3);
  1016f4:	83 c4 08             	add    $0x8,%esp
  1016f7:	6a 03                	push   $0x3
  1016f9:	6a 21                	push   $0x21
  1016fb:	e8 d4 10 00 00       	call   1027d4 <outb>

	// Set up slave (8259A-2)
	outb(IO_PIC2, 0x11);			// ICW1
  101700:	83 c4 08             	add    $0x8,%esp
  101703:	6a 11                	push   $0x11
  101705:	68 a0 00 00 00       	push   $0xa0
  10170a:	e8 c5 10 00 00       	call   1027d4 <outb>
	outb(IO_PIC2+1, T_IRQ0 + 8);		// ICW2
  10170f:	83 c4 08             	add    $0x8,%esp
  101712:	6a 28                	push   $0x28
  101714:	68 a1 00 00 00       	push   $0xa1
  101719:	e8 b6 10 00 00       	call   1027d4 <outb>
	outb(IO_PIC2+1, IRQ_SLAVE);		// ICW3
  10171e:	83 c4 08             	add    $0x8,%esp
  101721:	6a 02                	push   $0x2
  101723:	68 a1 00 00 00       	push   $0xa1
  101728:	e8 a7 10 00 00       	call   1027d4 <outb>
	// NB Automatic EOI mode doesn't tend to work on the slave.
	// Linux source code says it's "to be investigated".
	outb(IO_PIC2+1, 0x01);			// ICW4
  10172d:	83 c4 08             	add    $0x8,%esp
  101730:	6a 01                	push   $0x1
  101732:	68 a1 00 00 00       	push   $0xa1
  101737:	e8 98 10 00 00       	call   1027d4 <outb>

	// OCW3:  0ef01prs
	//   ef:  0x = NOP, 10 = clear specific mask, 11 = set specific mask
	//    p:  0 = no polling, 1 = polling mode
	//   rs:  0x = NOP, 10 = read IRR, 11 = read ISR
	outb(IO_PIC1, 0x68);             /* clear specific mask */
  10173c:	83 c4 08             	add    $0x8,%esp
  10173f:	6a 68                	push   $0x68
  101741:	6a 20                	push   $0x20
  101743:	e8 8c 10 00 00       	call   1027d4 <outb>
	outb(IO_PIC1, 0x0a);             /* read IRR by default */
  101748:	83 c4 08             	add    $0x8,%esp
  10174b:	6a 0a                	push   $0xa
  10174d:	6a 20                	push   $0x20
  10174f:	e8 80 10 00 00       	call   1027d4 <outb>

	outb(IO_PIC2, 0x68);               /* OCW3 */
  101754:	83 c4 08             	add    $0x8,%esp
  101757:	6a 68                	push   $0x68
  101759:	68 a0 00 00 00       	push   $0xa0
  10175e:	e8 71 10 00 00       	call   1027d4 <outb>
	outb(IO_PIC2, 0x0a);               /* OCW3 */
  101763:	83 c4 08             	add    $0x8,%esp
  101766:	6a 0a                	push   $0xa
  101768:	68 a0 00 00 00       	push   $0xa0
  10176d:	e8 62 10 00 00       	call   1027d4 <outb>
}
  101772:	83 c4 1c             	add    $0x1c,%esp
  101775:	c3                   	ret    

00101776 <timer_hw_init>:

// Initialize the programmable interval timer.

void
timer_hw_init(void)
{
  101776:	83 ec 14             	sub    $0x14,%esp
	outb(PIT_CONTROL, TIMER_SEL0 | TIMER_RATEGEN | TIMER_16BIT);
  101779:	6a 34                	push   $0x34
  10177b:	6a 43                	push   $0x43
  10177d:	e8 52 10 00 00       	call   1027d4 <outb>
	outb(PIT_CHANNEL0, LOW8(LATCH));
  101782:	83 c4 08             	add    $0x8,%esp
  101785:	68 9c 00 00 00       	push   $0x9c
  10178a:	6a 40                	push   $0x40
  10178c:	e8 43 10 00 00       	call   1027d4 <outb>
	outb(PIT_CHANNEL0, HIGH8(LATCH));
  101791:	83 c4 08             	add    $0x8,%esp
  101794:	6a 2e                	push   $0x2e
  101796:	6a 40                	push   $0x40
  101798:	e8 37 10 00 00       	call   1027d4 <outb>
}
  10179d:	83 c4 1c             	add    $0x1c,%esp
  1017a0:	c3                   	ret    

001017a1 <tsc_calibrate>:
/*
 * XXX: From Linux 3.2.6: arch/x86/kernel/tsc.c: pit_calibrate_tsc()
 */
static uint64_t
tsc_calibrate(uint32_t latch, uint32_t ms, int loopmin)
{
  1017a1:	55                   	push   %ebp
  1017a2:	57                   	push   %edi
  1017a3:	56                   	push   %esi
  1017a4:	53                   	push   %ebx
  1017a5:	83 ec 38             	sub    $0x38,%esp
  1017a8:	89 c3                	mov    %eax,%ebx
  1017aa:	89 54 24 28          	mov    %edx,0x28(%esp)
  1017ae:	89 cd                	mov    %ecx,%ebp
	uint64_t tsc, t1, t2, delta, tscmin, tscmax;;
	int pitcnt;

	/* Set the Gate high, disable speaker */
	outb(0x61, (inb(0x61) & ~0x02) | 0x01);
  1017b0:	6a 61                	push   $0x61
  1017b2:	e8 05 10 00 00       	call   1027bc <inb>
  1017b7:	83 e0 fc             	and    $0xfffffffc,%eax
  1017ba:	83 c8 01             	or     $0x1,%eax
  1017bd:	83 c4 08             	add    $0x8,%esp
  1017c0:	0f b6 c0             	movzbl %al,%eax
  1017c3:	50                   	push   %eax
  1017c4:	6a 61                	push   $0x61
  1017c6:	e8 09 10 00 00       	call   1027d4 <outb>
	/*
	 * Setup CTC channel 2 for mode 0, (interrupt on terminal
	 * count mode), binary count. Set the latch register to 50ms
	 * (LSB then MSB) to begin countdown.
	 */
	outb(0x43, 0xb0);
  1017cb:	83 c4 08             	add    $0x8,%esp
  1017ce:	68 b0 00 00 00       	push   $0xb0
  1017d3:	6a 43                	push   $0x43
  1017d5:	e8 fa 0f 00 00       	call   1027d4 <outb>
	outb(0x42, latch & 0xff);
  1017da:	83 c4 08             	add    $0x8,%esp
  1017dd:	0f b6 c3             	movzbl %bl,%eax
  1017e0:	50                   	push   %eax
  1017e1:	6a 42                	push   $0x42
  1017e3:	e8 ec 0f 00 00       	call   1027d4 <outb>
	outb(0x42, latch >> 8);
  1017e8:	83 c4 08             	add    $0x8,%esp
  1017eb:	0f b6 df             	movzbl %bh,%ebx
  1017ee:	53                   	push   %ebx
  1017ef:	6a 42                	push   $0x42
  1017f1:	e8 de 0f 00 00       	call   1027d4 <outb>

	tsc = t1 = t2 = rdtsc();
  1017f6:	e8 2f 0f 00 00       	call   10272a <rdtsc>
  1017fb:	89 44 24 20          	mov    %eax,0x20(%esp)
  1017ff:	89 54 24 24          	mov    %edx,0x24(%esp)

	pitcnt = 0;
	tscmax = 0;
	tscmin = ~(uint64_t) 0x0;
	while ((inb(0x61) & 0x20) == 0) {
  101803:	83 c4 10             	add    $0x10,%esp
	 */
	outb(0x43, 0xb0);
	outb(0x42, latch & 0xff);
	outb(0x42, latch >> 8);

	tsc = t1 = t2 = rdtsc();
  101806:	89 c6                	mov    %eax,%esi
  101808:	89 d7                	mov    %edx,%edi

	pitcnt = 0;
  10180a:	bb 00 00 00 00       	mov    $0x0,%ebx
	tscmax = 0;
  10180f:	c7 44 24 08 00 00 00 	movl   $0x0,0x8(%esp)
  101816:	00 
  101817:	c7 44 24 0c 00 00 00 	movl   $0x0,0xc(%esp)
  10181e:	00 
	tscmin = ~(uint64_t) 0x0;
  10181f:	c7 04 24 ff ff ff ff 	movl   $0xffffffff,(%esp)
  101826:	c7 44 24 04 ff ff ff 	movl   $0xffffffff,0x4(%esp)
  10182d:	ff 
  10182e:	89 5c 24 18          	mov    %ebx,0x18(%esp)
	while ((inb(0x61) & 0x20) == 0) {
  101832:	eb 11                	jmp    101845 <tsc_calibrate+0xa4>
		delta = t2 - tsc;
		tsc = t2;
		if (delta < tscmin)
			tscmin = delta;
		if (delta > tscmax)
			tscmax = delta;
  101834:	89 74 24 08          	mov    %esi,0x8(%esp)
  101838:	89 7c 24 0c          	mov    %edi,0xc(%esp)
		pitcnt++;
  10183c:	83 44 24 18 01       	addl   $0x1,0x18(%esp)
	tscmax = 0;
	tscmin = ~(uint64_t) 0x0;
	while ((inb(0x61) & 0x20) == 0) {
		t2 = rdtsc();
		delta = t2 - tsc;
		tsc = t2;
  101841:	89 c6                	mov    %eax,%esi
  101843:	89 d7                	mov    %edx,%edi
	tsc = t1 = t2 = rdtsc();

	pitcnt = 0;
	tscmax = 0;
	tscmin = ~(uint64_t) 0x0;
	while ((inb(0x61) & 0x20) == 0) {
  101845:	83 ec 0c             	sub    $0xc,%esp
  101848:	6a 61                	push   $0x61
  10184a:	e8 6d 0f 00 00       	call   1027bc <inb>
  10184f:	83 c4 10             	add    $0x10,%esp
  101852:	a8 20                	test   $0x20,%al
  101854:	75 3d                	jne    101893 <tsc_calibrate+0xf2>
		t2 = rdtsc();
  101856:	e8 cf 0e 00 00       	call   10272a <rdtsc>
		delta = t2 - tsc;
  10185b:	89 c1                	mov    %eax,%ecx
  10185d:	89 d3                	mov    %edx,%ebx
  10185f:	29 f1                	sub    %esi,%ecx
  101861:	19 fb                	sbb    %edi,%ebx
  101863:	89 ce                	mov    %ecx,%esi
  101865:	89 df                	mov    %ebx,%edi
		tsc = t2;
		if (delta < tscmin)
  101867:	8b 0c 24             	mov    (%esp),%ecx
  10186a:	8b 5c 24 04          	mov    0x4(%esp),%ebx
  10186e:	39 fb                	cmp    %edi,%ebx
  101870:	77 06                	ja     101878 <tsc_calibrate+0xd7>
  101872:	72 0b                	jb     10187f <tsc_calibrate+0xde>
  101874:	39 f1                	cmp    %esi,%ecx
  101876:	76 07                	jbe    10187f <tsc_calibrate+0xde>
			tscmin = delta;
  101878:	89 34 24             	mov    %esi,(%esp)
  10187b:	89 7c 24 04          	mov    %edi,0x4(%esp)
		if (delta > tscmax)
  10187f:	8b 4c 24 08          	mov    0x8(%esp),%ecx
  101883:	8b 5c 24 0c          	mov    0xc(%esp),%ebx
  101887:	39 fb                	cmp    %edi,%ebx
  101889:	72 a9                	jb     101834 <tsc_calibrate+0x93>
  10188b:	77 af                	ja     10183c <tsc_calibrate+0x9b>
  10188d:	39 f1                	cmp    %esi,%ecx
  10188f:	73 ab                	jae    10183c <tsc_calibrate+0x9b>
  101891:	eb a1                	jmp    101834 <tsc_calibrate+0x93>
  101893:	8b 5c 24 18          	mov    0x18(%esp),%ebx
	 * times, then we have been hit by a massive SMI
	 *
	 * If the maximum is 10 times larger than the minimum,
	 * then we got hit by an SMI as well.
	 */
	KERN_DEBUG("pitcnt=%u, tscmin=%llu, tscmax=%llu\n",
  101897:	ff 74 24 0c          	pushl  0xc(%esp)
  10189b:	ff 74 24 0c          	pushl  0xc(%esp)
  10189f:	ff 74 24 0c          	pushl  0xc(%esp)
  1018a3:	ff 74 24 0c          	pushl  0xc(%esp)
  1018a7:	53                   	push   %ebx
  1018a8:	68 e8 4e 10 00       	push   $0x104ee8
  1018ad:	6a 3a                	push   $0x3a
  1018af:	68 0d 4f 10 00       	push   $0x104f0d
  1018b4:	e8 52 05 00 00       	call   101e0b <debug_normal>
		   pitcnt, tscmin, tscmax);
	if (pitcnt < loopmin || tscmax > 10 * tscmin)
  1018b9:	83 c4 20             	add    $0x20,%esp
  1018bc:	39 eb                	cmp    %ebp,%ebx
  1018be:	7d 12                	jge    1018d2 <tsc_calibrate+0x131>
		return ~(uint64_t) 0x0;
  1018c0:	b8 ff ff ff ff       	mov    $0xffffffff,%eax
  1018c5:	ba ff ff ff ff       	mov    $0xffffffff,%edx

	/* Calculate the PIT value */
	delta = t2 - t1;
	return delta / ms;
}
  1018ca:	83 c4 2c             	add    $0x2c,%esp
  1018cd:	5b                   	pop    %ebx
  1018ce:	5e                   	pop    %esi
  1018cf:	5f                   	pop    %edi
  1018d0:	5d                   	pop    %ebp
  1018d1:	c3                   	ret    
	 * If the maximum is 10 times larger than the minimum,
	 * then we got hit by an SMI as well.
	 */
	KERN_DEBUG("pitcnt=%u, tscmin=%llu, tscmax=%llu\n",
		   pitcnt, tscmin, tscmax);
	if (pitcnt < loopmin || tscmax > 10 * tscmin)
  1018d2:	6b 4c 24 04 0a       	imul   $0xa,0x4(%esp),%ecx
  1018d7:	b8 0a 00 00 00       	mov    $0xa,%eax
  1018dc:	f7 24 24             	mull   (%esp)
  1018df:	01 ca                	add    %ecx,%edx
  1018e1:	8b 4c 24 08          	mov    0x8(%esp),%ecx
  1018e5:	8b 5c 24 0c          	mov    0xc(%esp),%ebx
  1018e9:	39 d3                	cmp    %edx,%ebx
  1018eb:	77 25                	ja     101912 <tsc_calibrate+0x171>
  1018ed:	72 04                	jb     1018f3 <tsc_calibrate+0x152>
  1018ef:	39 c1                	cmp    %eax,%ecx
  1018f1:	77 1f                	ja     101912 <tsc_calibrate+0x171>
		return ~(uint64_t) 0x0;

	/* Calculate the PIT value */
	delta = t2 - t1;
  1018f3:	2b 74 24 10          	sub    0x10(%esp),%esi
  1018f7:	1b 7c 24 14          	sbb    0x14(%esp),%edi
	return delta / ms;
  1018fb:	8b 44 24 1c          	mov    0x1c(%esp),%eax
  1018ff:	ba 00 00 00 00       	mov    $0x0,%edx
  101904:	52                   	push   %edx
  101905:	50                   	push   %eax
  101906:	57                   	push   %edi
  101907:	56                   	push   %esi
  101908:	e8 03 30 00 00       	call   104910 <__udivdi3>
  10190d:	83 c4 10             	add    $0x10,%esp
  101910:	eb b8                	jmp    1018ca <tsc_calibrate+0x129>
	 * then we got hit by an SMI as well.
	 */
	KERN_DEBUG("pitcnt=%u, tscmin=%llu, tscmax=%llu\n",
		   pitcnt, tscmin, tscmax);
	if (pitcnt < loopmin || tscmax > 10 * tscmin)
		return ~(uint64_t) 0x0;
  101912:	b8 ff ff ff ff       	mov    $0xffffffff,%eax
  101917:	ba ff ff ff ff       	mov    $0xffffffff,%edx
  10191c:	eb ac                	jmp    1018ca <tsc_calibrate+0x129>

0010191e <tsc_init>:
	return delta / ms;
}

int
tsc_init(void)
{
  10191e:	57                   	push   %edi
  10191f:	56                   	push   %esi
  101920:	53                   	push   %ebx
	uint64_t ret;
	int i;

	timer_hw_init();
  101921:	e8 50 fe ff ff       	call   101776 <timer_hw_init>

	tsc_per_ms = 0;
  101926:	c7 05 c0 de 96 00 00 	movl   $0x0,0x96dec0
  10192d:	00 00 00 
  101930:	c7 05 c4 de 96 00 00 	movl   $0x0,0x96dec4
  101937:	00 00 00 

	/*
	 * XXX: If TSC calibration fails frequently, try to increase the
	 *      upperbound of loop condition, e.g. alternating 3 to 10.
	 */
	for (i = 0; i < 10; i++) {
  10193a:	bb 00 00 00 00       	mov    $0x0,%ebx
  10193f:	83 fb 09             	cmp    $0x9,%ebx
  101942:	7f 3a                	jg     10197e <tsc_init+0x60>
		ret = tsc_calibrate(CAL_LATCH, CAL_MS, CAL_PIT_LOOPS);
  101944:	b9 e8 03 00 00       	mov    $0x3e8,%ecx
  101949:	ba 0a 00 00 00       	mov    $0xa,%edx
  10194e:	b8 9b 2e 00 00       	mov    $0x2e9b,%eax
  101953:	e8 49 fe ff ff       	call   1017a1 <tsc_calibrate>
  101958:	89 c6                	mov    %eax,%esi
  10195a:	89 d7                	mov    %edx,%edi
		if (ret != ~(uint64_t) 0x0)
  10195c:	f7 d0                	not    %eax
  10195e:	f7 d2                	not    %edx
  101960:	09 c2                	or     %eax,%edx
  101962:	75 1a                	jne    10197e <tsc_init+0x60>
			break;
		KERN_DEBUG("[%d] Retry to calibrate TSC.\n", i+1);
  101964:	83 c3 01             	add    $0x1,%ebx
  101967:	53                   	push   %ebx
  101968:	68 1c 4f 10 00       	push   $0x104f1c
  10196d:	6a 55                	push   $0x55
  10196f:	68 0d 4f 10 00       	push   $0x104f0d
  101974:	e8 92 04 00 00       	call   101e0b <debug_normal>

	/*
	 * XXX: If TSC calibration fails frequently, try to increase the
	 *      upperbound of loop condition, e.g. alternating 3 to 10.
	 */
	for (i = 0; i < 10; i++) {
  101979:	83 c4 10             	add    $0x10,%esp
  10197c:	eb c1                	jmp    10193f <tsc_init+0x21>
		if (ret != ~(uint64_t) 0x0)
			break;
		KERN_DEBUG("[%d] Retry to calibrate TSC.\n", i+1);
	}

	if (ret == ~(uint64_t) 0x0) {
  10197e:	89 fa                	mov    %edi,%edx
  101980:	f7 d2                	not    %edx
  101982:	89 f0                	mov    %esi,%eax
  101984:	f7 d0                	not    %eax
  101986:	09 c2                	or     %eax,%edx
  101988:	74 4d                	je     1019d7 <tsc_init+0xb9>
		tsc_per_ms = 1000000;

		timer_hw_init();
		return 1;
	} else {
		tsc_per_ms = ret;
  10198a:	89 35 c0 de 96 00    	mov    %esi,0x96dec0
  101990:	89 3d c4 de 96 00    	mov    %edi,0x96dec4
		KERN_DEBUG("TSC freq = %llu Hz.\n", tsc_per_ms*1000);
  101996:	a1 c0 de 96 00       	mov    0x96dec0,%eax
  10199b:	8b 15 c4 de 96 00    	mov    0x96dec4,%edx
  1019a1:	83 ec 0c             	sub    $0xc,%esp
  1019a4:	69 ca e8 03 00 00    	imul   $0x3e8,%edx,%ecx
  1019aa:	ba e8 03 00 00       	mov    $0x3e8,%edx
  1019af:	f7 e2                	mul    %edx
  1019b1:	01 ca                	add    %ecx,%edx
  1019b3:	52                   	push   %edx
  1019b4:	50                   	push   %eax
  1019b5:	68 6d 4f 10 00       	push   $0x104f6d
  1019ba:	6a 61                	push   $0x61
  1019bc:	68 0d 4f 10 00       	push   $0x104f0d
  1019c1:	e8 45 04 00 00       	call   101e0b <debug_normal>

		timer_hw_init();
  1019c6:	83 c4 20             	add    $0x20,%esp
  1019c9:	e8 a8 fd ff ff       	call   101776 <timer_hw_init>
		return 0;
  1019ce:	b8 00 00 00 00       	mov    $0x0,%eax
	}
}
  1019d3:	5b                   	pop    %ebx
  1019d4:	5e                   	pop    %esi
  1019d5:	5f                   	pop    %edi
  1019d6:	c3                   	ret    
			break;
		KERN_DEBUG("[%d] Retry to calibrate TSC.\n", i+1);
	}

	if (ret == ~(uint64_t) 0x0) {
		KERN_DEBUG("TSC calibration failed.\n");
  1019d7:	83 ec 04             	sub    $0x4,%esp
  1019da:	68 3a 4f 10 00       	push   $0x104f3a
  1019df:	6a 59                	push   $0x59
  1019e1:	68 0d 4f 10 00       	push   $0x104f0d
  1019e6:	e8 20 04 00 00       	call   101e0b <debug_normal>
		KERN_DEBUG("Assume TSC freq = 1 GHz.\n");
  1019eb:	83 c4 0c             	add    $0xc,%esp
  1019ee:	68 53 4f 10 00       	push   $0x104f53
  1019f3:	6a 5a                	push   $0x5a
  1019f5:	68 0d 4f 10 00       	push   $0x104f0d
  1019fa:	e8 0c 04 00 00       	call   101e0b <debug_normal>
		tsc_per_ms = 1000000;
  1019ff:	c7 05 c0 de 96 00 40 	movl   $0xf4240,0x96dec0
  101a06:	42 0f 00 
  101a09:	c7 05 c4 de 96 00 00 	movl   $0x0,0x96dec4
  101a10:	00 00 00 

		timer_hw_init();
  101a13:	e8 5e fd ff ff       	call   101776 <timer_hw_init>
		return 1;
  101a18:	83 c4 10             	add    $0x10,%esp
  101a1b:	b8 01 00 00 00       	mov    $0x1,%eax
  101a20:	eb b1                	jmp    1019d3 <tsc_init+0xb5>

00101a22 <delay>:
/*
 * Wait for ms millisecond.
 */
void
delay(uint32_t ms)
{
  101a22:	57                   	push   %edi
  101a23:	56                   	push   %esi
  101a24:	53                   	push   %ebx
  101a25:	83 ec 10             	sub    $0x10,%esp
  101a28:	8b 44 24 20          	mov    0x20(%esp),%eax
	volatile uint64_t ticks = tsc_per_ms * ms;
  101a2c:	8b 0d c0 de 96 00    	mov    0x96dec0,%ecx
  101a32:	8b 1d c4 de 96 00    	mov    0x96dec4,%ebx
  101a38:	0f af d8             	imul   %eax,%ebx
  101a3b:	f7 e1                	mul    %ecx
  101a3d:	01 da                	add    %ebx,%edx
  101a3f:	89 44 24 08          	mov    %eax,0x8(%esp)
  101a43:	89 54 24 0c          	mov    %edx,0xc(%esp)
	volatile uint64_t start = rdtsc();
  101a47:	e8 de 0c 00 00       	call   10272a <rdtsc>
  101a4c:	89 04 24             	mov    %eax,(%esp)
  101a4f:	89 54 24 04          	mov    %edx,0x4(%esp)
	while (rdtsc() < start + ticks);
  101a53:	e8 d2 0c 00 00       	call   10272a <rdtsc>
  101a58:	8b 0c 24             	mov    (%esp),%ecx
  101a5b:	8b 5c 24 04          	mov    0x4(%esp),%ebx
  101a5f:	8b 74 24 08          	mov    0x8(%esp),%esi
  101a63:	8b 7c 24 0c          	mov    0xc(%esp),%edi
  101a67:	01 f1                	add    %esi,%ecx
  101a69:	11 fb                	adc    %edi,%ebx
  101a6b:	39 da                	cmp    %ebx,%edx
  101a6d:	72 e4                	jb     101a53 <delay+0x31>
  101a6f:	77 04                	ja     101a75 <delay+0x53>
  101a71:	39 c8                	cmp    %ecx,%eax
  101a73:	72 de                	jb     101a53 <delay+0x31>
}
  101a75:	83 c4 10             	add    $0x10,%esp
  101a78:	5b                   	pop    %ebx
  101a79:	5e                   	pop    %esi
  101a7a:	5f                   	pop    %edi
  101a7b:	c3                   	ret    

00101a7c <udelay>:
/*
 * Wait for us microsecond.
 */
void
udelay(uint32_t us)
{
  101a7c:	57                   	push   %edi
  101a7d:	56                   	push   %esi
  101a7e:	53                   	push   %ebx
  101a7f:	83 ec 10             	sub    $0x10,%esp
  101a82:	8b 5c 24 20          	mov    0x20(%esp),%ebx
    volatile uint64_t ticks = tsc_per_ms / 1000 * us;
  101a86:	a1 c0 de 96 00       	mov    0x96dec0,%eax
  101a8b:	8b 15 c4 de 96 00    	mov    0x96dec4,%edx
  101a91:	6a 00                	push   $0x0
  101a93:	68 e8 03 00 00       	push   $0x3e8
  101a98:	52                   	push   %edx
  101a99:	50                   	push   %eax
  101a9a:	e8 71 2e 00 00       	call   104910 <__udivdi3>
  101a9f:	83 c4 10             	add    $0x10,%esp
  101aa2:	89 d1                	mov    %edx,%ecx
  101aa4:	0f af cb             	imul   %ebx,%ecx
  101aa7:	f7 e3                	mul    %ebx
  101aa9:	01 ca                	add    %ecx,%edx
  101aab:	89 44 24 08          	mov    %eax,0x8(%esp)
  101aaf:	89 54 24 0c          	mov    %edx,0xc(%esp)
    volatile uint64_t start = rdtsc();
  101ab3:	e8 72 0c 00 00       	call   10272a <rdtsc>
  101ab8:	89 04 24             	mov    %eax,(%esp)
  101abb:	89 54 24 04          	mov    %edx,0x4(%esp)
    while (rdtsc() < start + ticks);
  101abf:	e8 66 0c 00 00       	call   10272a <rdtsc>
  101ac4:	8b 0c 24             	mov    (%esp),%ecx
  101ac7:	8b 5c 24 04          	mov    0x4(%esp),%ebx
  101acb:	8b 74 24 08          	mov    0x8(%esp),%esi
  101acf:	8b 7c 24 0c          	mov    0xc(%esp),%edi
  101ad3:	01 f1                	add    %esi,%ecx
  101ad5:	11 fb                	adc    %edi,%ebx
  101ad7:	39 da                	cmp    %ebx,%edx
  101ad9:	72 e4                	jb     101abf <udelay+0x43>
  101adb:	77 04                	ja     101ae1 <udelay+0x65>
  101add:	39 c8                	cmp    %ecx,%eax
  101adf:	72 de                	jb     101abf <udelay+0x43>
}
  101ae1:	83 c4 10             	add    $0x10,%esp
  101ae4:	5b                   	pop    %ebx
  101ae5:	5e                   	pop    %esi
  101ae6:	5f                   	pop    %edi
  101ae7:	c3                   	ret    
  101ae8:	66 90                	xchg   %ax,%ax
  101aea:	66 90                	xchg   %ax,%ax
  101aec:	66 90                	xchg   %ax,%ax
  101aee:	66 90                	xchg   %ax,%ax

00101af0 <Xdivide>:
	jmp _alltraps

.text

/* exceptions  */
TRAPHANDLER_NOEC(Xdivide,	T_DIVIDE)
  101af0:	6a 00                	push   $0x0
  101af2:	6a 00                	push   $0x0
  101af4:	e9 17 01 00 00       	jmp    101c10 <_alltraps>
  101af9:	90                   	nop

00101afa <Xdebug>:
TRAPHANDLER_NOEC(Xdebug,	T_DEBUG)
  101afa:	6a 00                	push   $0x0
  101afc:	6a 01                	push   $0x1
  101afe:	e9 0d 01 00 00       	jmp    101c10 <_alltraps>
  101b03:	90                   	nop

00101b04 <Xnmi>:
TRAPHANDLER_NOEC(Xnmi,		T_NMI)
  101b04:	6a 00                	push   $0x0
  101b06:	6a 02                	push   $0x2
  101b08:	e9 03 01 00 00       	jmp    101c10 <_alltraps>
  101b0d:	90                   	nop

00101b0e <Xbrkpt>:
TRAPHANDLER_NOEC(Xbrkpt,	T_BRKPT)
  101b0e:	6a 00                	push   $0x0
  101b10:	6a 03                	push   $0x3
  101b12:	e9 f9 00 00 00       	jmp    101c10 <_alltraps>
  101b17:	90                   	nop

00101b18 <Xoflow>:
TRAPHANDLER_NOEC(Xoflow,	T_OFLOW)
  101b18:	6a 00                	push   $0x0
  101b1a:	6a 04                	push   $0x4
  101b1c:	e9 ef 00 00 00       	jmp    101c10 <_alltraps>
  101b21:	90                   	nop

00101b22 <Xbound>:
TRAPHANDLER_NOEC(Xbound,	T_BOUND)
  101b22:	6a 00                	push   $0x0
  101b24:	6a 05                	push   $0x5
  101b26:	e9 e5 00 00 00       	jmp    101c10 <_alltraps>
  101b2b:	90                   	nop

00101b2c <Xillop>:
TRAPHANDLER_NOEC(Xillop,	T_ILLOP)
  101b2c:	6a 00                	push   $0x0
  101b2e:	6a 06                	push   $0x6
  101b30:	e9 db 00 00 00       	jmp    101c10 <_alltraps>
  101b35:	90                   	nop

00101b36 <Xdevice>:
TRAPHANDLER_NOEC(Xdevice,	T_DEVICE)
  101b36:	6a 00                	push   $0x0
  101b38:	6a 07                	push   $0x7
  101b3a:	e9 d1 00 00 00       	jmp    101c10 <_alltraps>
  101b3f:	90                   	nop

00101b40 <Xdblflt>:
TRAPHANDLER     (Xdblflt,	T_DBLFLT)
  101b40:	6a 08                	push   $0x8
  101b42:	e9 c9 00 00 00       	jmp    101c10 <_alltraps>
  101b47:	90                   	nop

00101b48 <Xcoproc>:
TRAPHANDLER_NOEC(Xcoproc,	T_COPROC)
  101b48:	6a 00                	push   $0x0
  101b4a:	6a 09                	push   $0x9
  101b4c:	e9 bf 00 00 00       	jmp    101c10 <_alltraps>
  101b51:	90                   	nop

00101b52 <Xtss>:
TRAPHANDLER     (Xtss,		T_TSS)
  101b52:	6a 0a                	push   $0xa
  101b54:	e9 b7 00 00 00       	jmp    101c10 <_alltraps>
  101b59:	90                   	nop

00101b5a <Xsegnp>:
TRAPHANDLER     (Xsegnp,	T_SEGNP)
  101b5a:	6a 0b                	push   $0xb
  101b5c:	e9 af 00 00 00       	jmp    101c10 <_alltraps>
  101b61:	90                   	nop

00101b62 <Xstack>:
TRAPHANDLER     (Xstack,	T_STACK)
  101b62:	6a 0c                	push   $0xc
  101b64:	e9 a7 00 00 00       	jmp    101c10 <_alltraps>
  101b69:	90                   	nop

00101b6a <Xgpflt>:
TRAPHANDLER     (Xgpflt,	T_GPFLT)
  101b6a:	6a 0d                	push   $0xd
  101b6c:	e9 9f 00 00 00       	jmp    101c10 <_alltraps>
  101b71:	90                   	nop

00101b72 <Xpgflt>:
TRAPHANDLER     (Xpgflt,	T_PGFLT)
  101b72:	6a 0e                	push   $0xe
  101b74:	e9 97 00 00 00       	jmp    101c10 <_alltraps>
  101b79:	90                   	nop

00101b7a <Xres>:
TRAPHANDLER_NOEC(Xres,		T_RES)
  101b7a:	6a 00                	push   $0x0
  101b7c:	6a 0f                	push   $0xf
  101b7e:	e9 8d 00 00 00       	jmp    101c10 <_alltraps>
  101b83:	90                   	nop

00101b84 <Xfperr>:
TRAPHANDLER_NOEC(Xfperr,	T_FPERR)
  101b84:	6a 00                	push   $0x0
  101b86:	6a 10                	push   $0x10
  101b88:	e9 83 00 00 00       	jmp    101c10 <_alltraps>
  101b8d:	90                   	nop

00101b8e <Xalign>:
TRAPHANDLER     (Xalign,	T_ALIGN)
  101b8e:	6a 11                	push   $0x11
  101b90:	eb 7e                	jmp    101c10 <_alltraps>

00101b92 <Xmchk>:
TRAPHANDLER_NOEC(Xmchk,		T_MCHK)
  101b92:	6a 00                	push   $0x0
  101b94:	6a 12                	push   $0x12
  101b96:	eb 78                	jmp    101c10 <_alltraps>

00101b98 <Xirq_timer>:

/* ISA interrupts  */
TRAPHANDLER_NOEC(Xirq_timer,	T_IRQ0 + IRQ_TIMER)
  101b98:	6a 00                	push   $0x0
  101b9a:	6a 20                	push   $0x20
  101b9c:	eb 72                	jmp    101c10 <_alltraps>

00101b9e <Xirq_kbd>:
TRAPHANDLER_NOEC(Xirq_kbd,	T_IRQ0 + IRQ_KBD)
  101b9e:	6a 00                	push   $0x0
  101ba0:	6a 21                	push   $0x21
  101ba2:	eb 6c                	jmp    101c10 <_alltraps>

00101ba4 <Xirq_slave>:
TRAPHANDLER_NOEC(Xirq_slave,	T_IRQ0 + IRQ_SLAVE)
  101ba4:	6a 00                	push   $0x0
  101ba6:	6a 22                	push   $0x22
  101ba8:	eb 66                	jmp    101c10 <_alltraps>

00101baa <Xirq_serial2>:
TRAPHANDLER_NOEC(Xirq_serial2,	T_IRQ0 + IRQ_SERIAL24)
  101baa:	6a 00                	push   $0x0
  101bac:	6a 23                	push   $0x23
  101bae:	eb 60                	jmp    101c10 <_alltraps>

00101bb0 <Xirq_serial1>:
TRAPHANDLER_NOEC(Xirq_serial1,	T_IRQ0 + IRQ_SERIAL13)
  101bb0:	6a 00                	push   $0x0
  101bb2:	6a 24                	push   $0x24
  101bb4:	eb 5a                	jmp    101c10 <_alltraps>

00101bb6 <Xirq_lpt>:
TRAPHANDLER_NOEC(Xirq_lpt,	T_IRQ0 + IRQ_LPT2)
  101bb6:	6a 00                	push   $0x0
  101bb8:	6a 25                	push   $0x25
  101bba:	eb 54                	jmp    101c10 <_alltraps>

00101bbc <Xirq_floppy>:
TRAPHANDLER_NOEC(Xirq_floppy,	T_IRQ0 + IRQ_FLOPPY)
  101bbc:	6a 00                	push   $0x0
  101bbe:	6a 26                	push   $0x26
  101bc0:	eb 4e                	jmp    101c10 <_alltraps>

00101bc2 <Xirq_spurious>:
TRAPHANDLER_NOEC(Xirq_spurious,	T_IRQ0 + IRQ_SPURIOUS)
  101bc2:	6a 00                	push   $0x0
  101bc4:	6a 27                	push   $0x27
  101bc6:	eb 48                	jmp    101c10 <_alltraps>

00101bc8 <Xirq_rtc>:
TRAPHANDLER_NOEC(Xirq_rtc,	T_IRQ0 + IRQ_RTC)
  101bc8:	6a 00                	push   $0x0
  101bca:	6a 28                	push   $0x28
  101bcc:	eb 42                	jmp    101c10 <_alltraps>

00101bce <Xirq9>:
TRAPHANDLER_NOEC(Xirq9,		T_IRQ0 + 9)
  101bce:	6a 00                	push   $0x0
  101bd0:	6a 29                	push   $0x29
  101bd2:	eb 3c                	jmp    101c10 <_alltraps>

00101bd4 <Xirq10>:
TRAPHANDLER_NOEC(Xirq10,	T_IRQ0 + 10)
  101bd4:	6a 00                	push   $0x0
  101bd6:	6a 2a                	push   $0x2a
  101bd8:	eb 36                	jmp    101c10 <_alltraps>

00101bda <Xirq11>:
TRAPHANDLER_NOEC(Xirq11,	T_IRQ0 + 11)
  101bda:	6a 00                	push   $0x0
  101bdc:	6a 2b                	push   $0x2b
  101bde:	eb 30                	jmp    101c10 <_alltraps>

00101be0 <Xirq_mouse>:
TRAPHANDLER_NOEC(Xirq_mouse,	T_IRQ0 + IRQ_MOUSE)
  101be0:	6a 00                	push   $0x0
  101be2:	6a 2c                	push   $0x2c
  101be4:	eb 2a                	jmp    101c10 <_alltraps>

00101be6 <Xirq_coproc>:
TRAPHANDLER_NOEC(Xirq_coproc,	T_IRQ0 + IRQ_COPROCESSOR)
  101be6:	6a 00                	push   $0x0
  101be8:	6a 2d                	push   $0x2d
  101bea:	eb 24                	jmp    101c10 <_alltraps>

00101bec <Xirq_ide1>:
TRAPHANDLER_NOEC(Xirq_ide1,	T_IRQ0 + IRQ_IDE1)
  101bec:	6a 00                	push   $0x0
  101bee:	6a 2e                	push   $0x2e
  101bf0:	eb 1e                	jmp    101c10 <_alltraps>

00101bf2 <Xirq_ide2>:
TRAPHANDLER_NOEC(Xirq_ide2,	T_IRQ0 + IRQ_IDE2)
  101bf2:	6a 00                	push   $0x0
  101bf4:	6a 2f                	push   $0x2f
  101bf6:	eb 18                	jmp    101c10 <_alltraps>

00101bf8 <Xsyscall>:

/* syscall */
TRAPHANDLER_NOEC(Xsyscall,	T_SYSCALL)
  101bf8:	6a 00                	push   $0x0
  101bfa:	6a 30                	push   $0x30
  101bfc:	eb 12                	jmp    101c10 <_alltraps>

00101bfe <Xdefault>:

/* default ? */
TRAPHANDLER     (Xdefault,	T_DEFAULT)
  101bfe:	68 fe 00 00 00       	push   $0xfe
  101c03:	eb 0b                	jmp    101c10 <_alltraps>
  101c05:	8d 74 26 00          	lea    0x0(%esi,%eiz,1),%esi
  101c09:	8d bc 27 00 00 00 00 	lea    0x0(%edi,%eiz,1),%edi

00101c10 <_alltraps>:

.globl	_alltraps
.type	_alltraps,@function
.p2align 4, 0x90		/* 16-byte alignment, nop filled */
_alltraps:
	cli			# make sure there is no nested trap
  101c10:	fa                   	cli    

	cld
  101c11:	fc                   	cld    

	pushl %ds		# build context
  101c12:	1e                   	push   %ds
	pushl %es
  101c13:	06                   	push   %es
	pushal
  101c14:	60                   	pusha  

	movl $CPU_GDT_KDATA,%eax # load kernel's data segment
  101c15:	b8 10 00 00 00       	mov    $0x10,%eax
	movw %ax,%ds
  101c1a:	8e d8                	mov    %eax,%ds
	movw %ax,%es
  101c1c:	8e c0                	mov    %eax,%es

	pushl %esp		# pass pointer to this trapframe
  101c1e:	54                   	push   %esp
	call trap		# and call trap (does not return)
  101c1f:	e8 6c 2c 00 00       	call   104890 <trap>

1:	hlt			# should never get here; just spin...
  101c24:	f4                   	hlt    
  101c25:	8d 74 26 00          	lea    0x0(%esi,%eiz,1),%esi
  101c29:	8d bc 27 00 00 00 00 	lea    0x0(%edi,%eiz,1),%edi

00101c30 <trap_return>:
//
.globl	trap_return
.type	trap_return,@function
.p2align 4, 0x90		/* 16-byte alignment, nop filled */
trap_return:
	movl	4(%esp),%esp	// reset stack pointer to point to trap frame
  101c30:	8b 64 24 04          	mov    0x4(%esp),%esp
	popal			// restore general-purpose registers except esp
  101c34:	61                   	popa   
	popl	%es		// restore data segment registers
  101c35:	07                   	pop    %es
	popl	%ds
  101c36:	1f                   	pop    %ds
	addl	$8,%esp		// skip tf_trapno and tf_errcode
  101c37:	83 c4 08             	add    $0x8,%esp
	iret			// return from trap handler
  101c3a:	cf                   	iret   

00101c3b <memset>:
#include "string.h"
#include "types.h"

void *
memset(void *v, int c, size_t n)
{
  101c3b:	57                   	push   %edi
  101c3c:	53                   	push   %ebx
  101c3d:	8b 7c 24 0c          	mov    0xc(%esp),%edi
  101c41:	8b 4c 24 14          	mov    0x14(%esp),%ecx
    if (n == 0)
  101c45:	85 c9                	test   %ecx,%ecx
  101c47:	74 14                	je     101c5d <memset+0x22>
        return v;
    if ((int)v%4 == 0 && n%4 == 0) {
  101c49:	f7 c7 03 00 00 00    	test   $0x3,%edi
  101c4f:	75 05                	jne    101c56 <memset+0x1b>
  101c51:	f6 c1 03             	test   $0x3,%cl
  101c54:	74 0c                	je     101c62 <memset+0x27>
        c = (c<<24)|(c<<16)|(c<<8)|c;
        asm volatile("cld; rep stosl\n"
                 :: "D" (v), "a" (c), "c" (n/4)
                 : "cc", "memory");
    } else
        asm volatile("cld; rep stosb\n"
  101c56:	8b 44 24 10          	mov    0x10(%esp),%eax
  101c5a:	fc                   	cld    
  101c5b:	f3 aa                	rep stos %al,%es:(%edi)
                 :: "D" (v), "a" (c), "c" (n)
                 : "cc", "memory");
    return v;
}
  101c5d:	89 f8                	mov    %edi,%eax
  101c5f:	5b                   	pop    %ebx
  101c60:	5f                   	pop    %edi
  101c61:	c3                   	ret    
memset(void *v, int c, size_t n)
{
    if (n == 0)
        return v;
    if ((int)v%4 == 0 && n%4 == 0) {
        c &= 0xFF;
  101c62:	0f b6 44 24 10       	movzbl 0x10(%esp),%eax
        c = (c<<24)|(c<<16)|(c<<8)|c;
  101c67:	89 c2                	mov    %eax,%edx
  101c69:	c1 e2 18             	shl    $0x18,%edx
  101c6c:	89 c3                	mov    %eax,%ebx
  101c6e:	c1 e3 10             	shl    $0x10,%ebx
  101c71:	09 da                	or     %ebx,%edx
  101c73:	89 c3                	mov    %eax,%ebx
  101c75:	c1 e3 08             	shl    $0x8,%ebx
  101c78:	09 da                	or     %ebx,%edx
  101c7a:	09 d0                	or     %edx,%eax
        asm volatile("cld; rep stosl\n"
                 :: "D" (v), "a" (c), "c" (n/4)
  101c7c:	c1 e9 02             	shr    $0x2,%ecx
    if (n == 0)
        return v;
    if ((int)v%4 == 0 && n%4 == 0) {
        c &= 0xFF;
        c = (c<<24)|(c<<16)|(c<<8)|c;
        asm volatile("cld; rep stosl\n"
  101c7f:	fc                   	cld    
  101c80:	f3 ab                	rep stos %eax,%es:(%edi)
  101c82:	eb d9                	jmp    101c5d <memset+0x22>

00101c84 <memmove>:
    return v;
}

void *
memmove(void *dst, const void *src, size_t n)
{
  101c84:	57                   	push   %edi
  101c85:	56                   	push   %esi
  101c86:	8b 44 24 0c          	mov    0xc(%esp),%eax
  101c8a:	8b 74 24 10          	mov    0x10(%esp),%esi
  101c8e:	8b 4c 24 14          	mov    0x14(%esp),%ecx
    const char *s;
    char *d;

    s = src;
    d = dst;
    if (s < d && s + n > d) {
  101c92:	39 c6                	cmp    %eax,%esi
  101c94:	73 36                	jae    101ccc <memmove+0x48>
  101c96:	8d 14 0e             	lea    (%esi,%ecx,1),%edx
  101c99:	39 d0                	cmp    %edx,%eax
  101c9b:	73 2f                	jae    101ccc <memmove+0x48>
        s += n;
        d += n;
  101c9d:	8d 3c 08             	lea    (%eax,%ecx,1),%edi
        if ((int)s%4 == 0 && (int)d%4 == 0 && n%4 == 0)
  101ca0:	f6 c2 03             	test   $0x3,%dl
  101ca3:	75 1b                	jne    101cc0 <memmove+0x3c>
  101ca5:	f7 c7 03 00 00 00    	test   $0x3,%edi
  101cab:	75 13                	jne    101cc0 <memmove+0x3c>
  101cad:	f6 c1 03             	test   $0x3,%cl
  101cb0:	75 0e                	jne    101cc0 <memmove+0x3c>
            asm volatile("std; rep movsl\n"
                     :: "D" (d-4), "S" (s-4), "c" (n/4)
  101cb2:	83 ef 04             	sub    $0x4,%edi
  101cb5:	8d 72 fc             	lea    -0x4(%edx),%esi
  101cb8:	c1 e9 02             	shr    $0x2,%ecx
    d = dst;
    if (s < d && s + n > d) {
        s += n;
        d += n;
        if ((int)s%4 == 0 && (int)d%4 == 0 && n%4 == 0)
            asm volatile("std; rep movsl\n"
  101cbb:	fd                   	std    
  101cbc:	f3 a5                	rep movsl %ds:(%esi),%es:(%edi)
  101cbe:	eb 09                	jmp    101cc9 <memmove+0x45>
                     :: "D" (d-4), "S" (s-4), "c" (n/4)
                     : "cc", "memory");
        else
            asm volatile("std; rep movsb\n"
                     :: "D" (d-1), "S" (s-1), "c" (n)
  101cc0:	83 ef 01             	sub    $0x1,%edi
  101cc3:	8d 72 ff             	lea    -0x1(%edx),%esi
        if ((int)s%4 == 0 && (int)d%4 == 0 && n%4 == 0)
            asm volatile("std; rep movsl\n"
                     :: "D" (d-4), "S" (s-4), "c" (n/4)
                     : "cc", "memory");
        else
            asm volatile("std; rep movsb\n"
  101cc6:	fd                   	std    
  101cc7:	f3 a4                	rep movsb %ds:(%esi),%es:(%edi)
                     :: "D" (d-1), "S" (s-1), "c" (n)
                     : "cc", "memory");
        // Some versions of GCC rely on DF being clear
        asm volatile("cld" ::: "cc");
  101cc9:	fc                   	cld    
  101cca:	eb 16                	jmp    101ce2 <memmove+0x5e>
    } else {
        if ((int)s%4 == 0 && (int)d%4 == 0 && n%4 == 0)
  101ccc:	f7 c6 03 00 00 00    	test   $0x3,%esi
  101cd2:	75 09                	jne    101cdd <memmove+0x59>
  101cd4:	a8 03                	test   $0x3,%al
  101cd6:	75 05                	jne    101cdd <memmove+0x59>
  101cd8:	f6 c1 03             	test   $0x3,%cl
  101cdb:	74 08                	je     101ce5 <memmove+0x61>
            asm volatile("cld; rep movsl\n"
                     :: "D" (d), "S" (s), "c" (n/4)
                     : "cc", "memory");
        else
            asm volatile("cld; rep movsb\n"
  101cdd:	89 c7                	mov    %eax,%edi
  101cdf:	fc                   	cld    
  101ce0:	f3 a4                	rep movsb %ds:(%esi),%es:(%edi)
                     :: "D" (d), "S" (s), "c" (n)
                     : "cc", "memory");
    }
    return dst;
}
  101ce2:	5e                   	pop    %esi
  101ce3:	5f                   	pop    %edi
  101ce4:	c3                   	ret    
        // Some versions of GCC rely on DF being clear
        asm volatile("cld" ::: "cc");
    } else {
        if ((int)s%4 == 0 && (int)d%4 == 0 && n%4 == 0)
            asm volatile("cld; rep movsl\n"
                     :: "D" (d), "S" (s), "c" (n/4)
  101ce5:	c1 e9 02             	shr    $0x2,%ecx
                     : "cc", "memory");
        // Some versions of GCC rely on DF being clear
        asm volatile("cld" ::: "cc");
    } else {
        if ((int)s%4 == 0 && (int)d%4 == 0 && n%4 == 0)
            asm volatile("cld; rep movsl\n"
  101ce8:	89 c7                	mov    %eax,%edi
  101cea:	fc                   	cld    
  101ceb:	f3 a5                	rep movsl %ds:(%esi),%es:(%edi)
  101ced:	eb f3                	jmp    101ce2 <memmove+0x5e>

00101cef <memcpy>:
}

void *
memcpy(void *dst, const void *src, size_t n)
{
	return memmove(dst, src, n);
  101cef:	ff 74 24 0c          	pushl  0xc(%esp)
  101cf3:	ff 74 24 0c          	pushl  0xc(%esp)
  101cf7:	ff 74 24 0c          	pushl  0xc(%esp)
  101cfb:	e8 84 ff ff ff       	call   101c84 <memmove>
  101d00:	83 c4 0c             	add    $0xc,%esp
}
  101d03:	c3                   	ret    

00101d04 <strncmp>:

int
strncmp(const char *p, const char *q, size_t n)
{
  101d04:	53                   	push   %ebx
  101d05:	8b 54 24 08          	mov    0x8(%esp),%edx
  101d09:	8b 4c 24 0c          	mov    0xc(%esp),%ecx
  101d0d:	8b 44 24 10          	mov    0x10(%esp),%eax
	while (n > 0 && *p && *p == *q)
  101d11:	eb 09                	jmp    101d1c <strncmp+0x18>
		n--, p++, q++;
  101d13:	83 e8 01             	sub    $0x1,%eax
  101d16:	83 c2 01             	add    $0x1,%edx
  101d19:	83 c1 01             	add    $0x1,%ecx
}

int
strncmp(const char *p, const char *q, size_t n)
{
	while (n > 0 && *p && *p == *q)
  101d1c:	85 c0                	test   %eax,%eax
  101d1e:	74 0b                	je     101d2b <strncmp+0x27>
  101d20:	0f b6 1a             	movzbl (%edx),%ebx
  101d23:	84 db                	test   %bl,%bl
  101d25:	74 04                	je     101d2b <strncmp+0x27>
  101d27:	3a 19                	cmp    (%ecx),%bl
  101d29:	74 e8                	je     101d13 <strncmp+0xf>
		n--, p++, q++;
	if (n == 0)
  101d2b:	85 c0                	test   %eax,%eax
  101d2d:	74 0a                	je     101d39 <strncmp+0x35>
		return 0;
	else
		return (int) ((unsigned char) *p - (unsigned char) *q);
  101d2f:	0f b6 02             	movzbl (%edx),%eax
  101d32:	0f b6 11             	movzbl (%ecx),%edx
  101d35:	29 d0                	sub    %edx,%eax
}
  101d37:	5b                   	pop    %ebx
  101d38:	c3                   	ret    
strncmp(const char *p, const char *q, size_t n)
{
	while (n > 0 && *p && *p == *q)
		n--, p++, q++;
	if (n == 0)
		return 0;
  101d39:	b8 00 00 00 00       	mov    $0x0,%eax
  101d3e:	eb f7                	jmp    101d37 <strncmp+0x33>

00101d40 <strnlen>:
		return (int) ((unsigned char) *p - (unsigned char) *q);
}

int
strnlen(const char *s, size_t size)
{
  101d40:	8b 4c 24 04          	mov    0x4(%esp),%ecx
  101d44:	8b 54 24 08          	mov    0x8(%esp),%edx
	int n;

	for (n = 0; size > 0 && *s != '\0'; s++, size--)
  101d48:	b8 00 00 00 00       	mov    $0x0,%eax
  101d4d:	eb 09                	jmp    101d58 <strnlen+0x18>
		n++;
  101d4f:	83 c0 01             	add    $0x1,%eax
int
strnlen(const char *s, size_t size)
{
	int n;

	for (n = 0; size > 0 && *s != '\0'; s++, size--)
  101d52:	83 c1 01             	add    $0x1,%ecx
  101d55:	83 ea 01             	sub    $0x1,%edx
  101d58:	85 d2                	test   %edx,%edx
  101d5a:	74 05                	je     101d61 <strnlen+0x21>
  101d5c:	80 39 00             	cmpb   $0x0,(%ecx)
  101d5f:	75 ee                	jne    101d4f <strnlen+0xf>
		n++;
	return n;
}
  101d61:	f3 c3                	repz ret 

00101d63 <strcmp>:

int
strcmp(const char *p, const char *q)
{
  101d63:	8b 4c 24 04          	mov    0x4(%esp),%ecx
  101d67:	8b 54 24 08          	mov    0x8(%esp),%edx
  while (*p && *p == *q)
  101d6b:	eb 06                	jmp    101d73 <strcmp+0x10>
    p++, q++;
  101d6d:	83 c1 01             	add    $0x1,%ecx
  101d70:	83 c2 01             	add    $0x1,%edx
}

int
strcmp(const char *p, const char *q)
{
  while (*p && *p == *q)
  101d73:	0f b6 01             	movzbl (%ecx),%eax
  101d76:	84 c0                	test   %al,%al
  101d78:	74 04                	je     101d7e <strcmp+0x1b>
  101d7a:	3a 02                	cmp    (%edx),%al
  101d7c:	74 ef                	je     101d6d <strcmp+0xa>
    p++, q++;
  return (int) ((unsigned char) *p - (unsigned char) *q);
  101d7e:	0f b6 c0             	movzbl %al,%eax
  101d81:	0f b6 12             	movzbl (%edx),%edx
  101d84:	29 d0                	sub    %edx,%eax
}
  101d86:	c3                   	ret    

00101d87 <strchr>:

// Return a pointer to the first occurrence of 'c' in 's',
// or a null pointer if the string has no 'c'.
char *
strchr(const char *s, char c)
{
  101d87:	8b 44 24 04          	mov    0x4(%esp),%eax
  101d8b:	0f b6 4c 24 08       	movzbl 0x8(%esp),%ecx
  for (; *s; s++)
  101d90:	0f b6 10             	movzbl (%eax),%edx
  101d93:	84 d2                	test   %dl,%dl
  101d95:	74 09                	je     101da0 <strchr+0x19>
    if (*s == c)
  101d97:	38 ca                	cmp    %cl,%dl
  101d99:	74 0a                	je     101da5 <strchr+0x1e>
// Return a pointer to the first occurrence of 'c' in 's',
// or a null pointer if the string has no 'c'.
char *
strchr(const char *s, char c)
{
  for (; *s; s++)
  101d9b:	83 c0 01             	add    $0x1,%eax
  101d9e:	eb f0                	jmp    101d90 <strchr+0x9>
    if (*s == c)
      return (char *) s;
  return 0;
  101da0:	b8 00 00 00 00       	mov    $0x0,%eax
}
  101da5:	f3 c3                	repz ret 

00101da7 <memzero>:

void *
memzero(void *v, size_t n)
{
	return memset(v, 0, n);
  101da7:	ff 74 24 08          	pushl  0x8(%esp)
  101dab:	6a 00                	push   $0x0
  101dad:	ff 74 24 0c          	pushl  0xc(%esp)
  101db1:	e8 85 fe ff ff       	call   101c3b <memset>
  101db6:	83 c4 0c             	add    $0xc,%esp
}
  101db9:	c3                   	ret    

00101dba <debug_trace>:

#define DEBUG_TRACEFRAMES	10

static void
debug_trace(uintptr_t ebp, uintptr_t *eips)
{
  101dba:	56                   	push   %esi
  101dbb:	53                   	push   %ebx
  101dbc:	89 d6                	mov    %edx,%esi
	int i;
	uintptr_t *frame = (uintptr_t *) ebp;

	for (i = 0; i < DEBUG_TRACEFRAMES && frame; i++) {
  101dbe:	b9 00 00 00 00       	mov    $0x0,%ecx
  101dc3:	eb 0b                	jmp    101dd0 <debug_trace+0x16>
		eips[i] = frame[1];		/* saved %eip */
  101dc5:	8b 50 04             	mov    0x4(%eax),%edx
  101dc8:	89 14 8e             	mov    %edx,(%esi,%ecx,4)
		frame = (uintptr_t *) frame[0];	/* saved %ebp */
  101dcb:	8b 00                	mov    (%eax),%eax
debug_trace(uintptr_t ebp, uintptr_t *eips)
{
	int i;
	uintptr_t *frame = (uintptr_t *) ebp;

	for (i = 0; i < DEBUG_TRACEFRAMES && frame; i++) {
  101dcd:	83 c1 01             	add    $0x1,%ecx
  101dd0:	83 f9 09             	cmp    $0x9,%ecx
  101dd3:	0f 9e c3             	setle  %bl
  101dd6:	85 c0                	test   %eax,%eax
  101dd8:	0f 95 c2             	setne  %dl
  101ddb:	84 da                	test   %bl,%dl
  101ddd:	75 e6                	jne    101dc5 <debug_trace+0xb>
  101ddf:	eb 0a                	jmp    101deb <debug_trace+0x31>
		eips[i] = frame[1];		/* saved %eip */
		frame = (uintptr_t *) frame[0];	/* saved %ebp */
	}
	for (; i < DEBUG_TRACEFRAMES; i++)
		eips[i] = 0;
  101de1:	c7 04 8e 00 00 00 00 	movl   $0x0,(%esi,%ecx,4)

	for (i = 0; i < DEBUG_TRACEFRAMES && frame; i++) {
		eips[i] = frame[1];		/* saved %eip */
		frame = (uintptr_t *) frame[0];	/* saved %ebp */
	}
	for (; i < DEBUG_TRACEFRAMES; i++)
  101de8:	83 c1 01             	add    $0x1,%ecx
  101deb:	83 f9 09             	cmp    $0x9,%ecx
  101dee:	7e f1                	jle    101de1 <debug_trace+0x27>
		eips[i] = 0;
}
  101df0:	5b                   	pop    %ebx
  101df1:	5e                   	pop    %esi
  101df2:	c3                   	ret    

00101df3 <debug_info>:

#include <lib/types.h>

void
debug_info(const char *fmt, ...)
{
  101df3:	83 ec 0c             	sub    $0xc,%esp
#ifdef DEBUG_MSG
	va_list ap;
	va_start(ap, fmt);
  101df6:	8d 44 24 14          	lea    0x14(%esp),%eax
	vdprintf(fmt, ap);
  101dfa:	83 ec 08             	sub    $0x8,%esp
  101dfd:	50                   	push   %eax
  101dfe:	ff 74 24 1c          	pushl  0x1c(%esp)
  101e02:	e8 33 01 00 00       	call   101f3a <vdprintf>
	va_end(ap);
#endif
}
  101e07:	83 c4 1c             	add    $0x1c,%esp
  101e0a:	c3                   	ret    

00101e0b <debug_normal>:

#ifdef DEBUG_MSG

void
debug_normal(const char *file, int line, const char *fmt, ...)
{
  101e0b:	83 ec 10             	sub    $0x10,%esp
	dprintf("[D] %s:%d: ", file, line);
  101e0e:	ff 74 24 18          	pushl  0x18(%esp)
  101e12:	ff 74 24 18          	pushl  0x18(%esp)
  101e16:	68 82 4f 10 00       	push   $0x104f82
  101e1b:	e8 6a 01 00 00       	call   101f8a <dprintf>

	va_list ap;
	va_start(ap, fmt);
  101e20:	8d 44 24 2c          	lea    0x2c(%esp),%eax
	vdprintf(fmt, ap);
  101e24:	83 c4 08             	add    $0x8,%esp
  101e27:	50                   	push   %eax
  101e28:	ff 74 24 24          	pushl  0x24(%esp)
  101e2c:	e8 09 01 00 00       	call   101f3a <vdprintf>
	va_end(ap);
}
  101e31:	83 c4 1c             	add    $0x1c,%esp
  101e34:	c3                   	ret    

00101e35 <debug_panic>:
		eips[i] = 0;
}

gcc_noinline void
debug_panic(const char *file, int line, const char *fmt,...)
{
  101e35:	53                   	push   %ebx
  101e36:	83 ec 3c             	sub    $0x3c,%esp
	int i;
	uintptr_t eips[DEBUG_TRACEFRAMES];
	va_list ap;

	dprintf("[P] %s:%d: ", file, line);
  101e39:	ff 74 24 48          	pushl  0x48(%esp)
  101e3d:	ff 74 24 48          	pushl  0x48(%esp)
  101e41:	68 8e 4f 10 00       	push   $0x104f8e
  101e46:	e8 3f 01 00 00       	call   101f8a <dprintf>

	va_start(ap, fmt);
  101e4b:	8d 44 24 5c          	lea    0x5c(%esp),%eax
	vdprintf(fmt, ap);
  101e4f:	83 c4 08             	add    $0x8,%esp
  101e52:	50                   	push   %eax
  101e53:	ff 74 24 54          	pushl  0x54(%esp)
  101e57:	e8 de 00 00 00       	call   101f3a <vdprintf>

static inline uint32_t __attribute__((always_inline))
read_ebp(void)
{
	uint32_t ebp;
	__asm __volatile("movl %%ebp,%0" : "=rm" (ebp));
  101e5c:	89 e8                	mov    %ebp,%eax
	va_end(ap);

	debug_trace(read_ebp(), eips);
  101e5e:	8d 54 24 18          	lea    0x18(%esp),%edx
  101e62:	e8 53 ff ff ff       	call   101dba <debug_trace>
	for (i = 0; i < DEBUG_TRACEFRAMES && eips[i] != 0; i++)
  101e67:	83 c4 10             	add    $0x10,%esp
  101e6a:	bb 00 00 00 00       	mov    $0x0,%ebx
  101e6f:	eb 14                	jmp    101e85 <debug_panic+0x50>
		dprintf("\tfrom 0x%08x\n", eips[i]);
  101e71:	83 ec 08             	sub    $0x8,%esp
  101e74:	50                   	push   %eax
  101e75:	68 9a 4f 10 00       	push   $0x104f9a
  101e7a:	e8 0b 01 00 00       	call   101f8a <dprintf>
	va_start(ap, fmt);
	vdprintf(fmt, ap);
	va_end(ap);

	debug_trace(read_ebp(), eips);
	for (i = 0; i < DEBUG_TRACEFRAMES && eips[i] != 0; i++)
  101e7f:	83 c3 01             	add    $0x1,%ebx
  101e82:	83 c4 10             	add    $0x10,%esp
  101e85:	83 fb 09             	cmp    $0x9,%ebx
  101e88:	7f 08                	jg     101e92 <debug_panic+0x5d>
  101e8a:	8b 44 9c 08          	mov    0x8(%esp,%ebx,4),%eax
  101e8e:	85 c0                	test   %eax,%eax
  101e90:	75 df                	jne    101e71 <debug_panic+0x3c>
		dprintf("\tfrom 0x%08x\n", eips[i]);

	dprintf("Kernel Panic !!!\n");
  101e92:	83 ec 0c             	sub    $0xc,%esp
  101e95:	68 a8 4f 10 00       	push   $0x104fa8
  101e9a:	e8 eb 00 00 00       	call   101f8a <dprintf>

	//intr_local_disable();
	halt();
  101e9f:	e8 84 08 00 00       	call   102728 <halt>
}
  101ea4:	83 c4 48             	add    $0x48,%esp
  101ea7:	5b                   	pop    %ebx
  101ea8:	c3                   	ret    

00101ea9 <debug_warn>:

void
debug_warn(const char *file, int line, const char *fmt,...)
{
  101ea9:	83 ec 10             	sub    $0x10,%esp
	dprintf("[W] %s:%d: ", file, line);
  101eac:	ff 74 24 18          	pushl  0x18(%esp)
  101eb0:	ff 74 24 18          	pushl  0x18(%esp)
  101eb4:	68 ba 4f 10 00       	push   $0x104fba
  101eb9:	e8 cc 00 00 00       	call   101f8a <dprintf>

	va_list ap;
	va_start(ap, fmt);
  101ebe:	8d 44 24 2c          	lea    0x2c(%esp),%eax
	vdprintf(fmt, ap);
  101ec2:	83 c4 08             	add    $0x8,%esp
  101ec5:	50                   	push   %eax
  101ec6:	ff 74 24 24          	pushl  0x24(%esp)
  101eca:	e8 6b 00 00 00       	call   101f3a <vdprintf>
	va_end(ap);
}
  101ecf:	83 c4 1c             	add    $0x1c,%esp
  101ed2:	c3                   	ret    

00101ed3 <cputs>:
    char buf[CONSOLE_BUFFER_SIZE];
};

static void
cputs (const char *str)
{
  101ed3:	53                   	push   %ebx
  101ed4:	83 ec 08             	sub    $0x8,%esp
  101ed7:	89 c3                	mov    %eax,%ebx
    while (*str)
  101ed9:	eb 12                	jmp    101eed <cputs+0x1a>
    {
        cons_putc (*str);
  101edb:	83 ec 0c             	sub    $0xc,%esp
  101ede:	0f be c0             	movsbl %al,%eax
  101ee1:	50                   	push   %eax
  101ee2:	e8 ab e4 ff ff       	call   100392 <cons_putc>
        str += 1;
  101ee7:	83 c3 01             	add    $0x1,%ebx
  101eea:	83 c4 10             	add    $0x10,%esp
};

static void
cputs (const char *str)
{
    while (*str)
  101eed:	0f b6 03             	movzbl (%ebx),%eax
  101ef0:	84 c0                	test   %al,%al
  101ef2:	75 e7                	jne    101edb <cputs+0x8>
    {
        cons_putc (*str);
        str += 1;
    }
}
  101ef4:	83 c4 08             	add    $0x8,%esp
  101ef7:	5b                   	pop    %ebx
  101ef8:	c3                   	ret    

00101ef9 <putch>:

static void
putch (int ch, struct dprintbuf *b)
{
  101ef9:	53                   	push   %ebx
  101efa:	83 ec 08             	sub    $0x8,%esp
  101efd:	8b 5c 24 14          	mov    0x14(%esp),%ebx
    b->buf[b->idx++] = ch;
  101f01:	8b 13                	mov    (%ebx),%edx
  101f03:	8d 42 01             	lea    0x1(%edx),%eax
  101f06:	89 03                	mov    %eax,(%ebx)
  101f08:	8b 4c 24 10          	mov    0x10(%esp),%ecx
  101f0c:	88 4c 13 08          	mov    %cl,0x8(%ebx,%edx,1)
    if (b->idx == CONSOLE_BUFFER_SIZE - 1)
  101f10:	3d ff 01 00 00       	cmp    $0x1ff,%eax
  101f15:	74 0e                	je     101f25 <putch+0x2c>
    {
        b->buf[b->idx] = 0;
        cputs (b->buf);
        b->idx = 0;
    }
    b->cnt++;
  101f17:	8b 43 04             	mov    0x4(%ebx),%eax
  101f1a:	83 c0 01             	add    $0x1,%eax
  101f1d:	89 43 04             	mov    %eax,0x4(%ebx)
}
  101f20:	83 c4 08             	add    $0x8,%esp
  101f23:	5b                   	pop    %ebx
  101f24:	c3                   	ret    
putch (int ch, struct dprintbuf *b)
{
    b->buf[b->idx++] = ch;
    if (b->idx == CONSOLE_BUFFER_SIZE - 1)
    {
        b->buf[b->idx] = 0;
  101f25:	c6 44 13 09 00       	movb   $0x0,0x9(%ebx,%edx,1)
        cputs (b->buf);
  101f2a:	8d 43 08             	lea    0x8(%ebx),%eax
  101f2d:	e8 a1 ff ff ff       	call   101ed3 <cputs>
        b->idx = 0;
  101f32:	c7 03 00 00 00 00    	movl   $0x0,(%ebx)
  101f38:	eb dd                	jmp    101f17 <putch+0x1e>

00101f3a <vdprintf>:
    b->cnt++;
}

int
vdprintf (const char *fmt, va_list ap)
{
  101f3a:	81 ec 1c 02 00 00    	sub    $0x21c,%esp
    struct dprintbuf b;

    b.idx = 0;
  101f40:	c7 44 24 08 00 00 00 	movl   $0x0,0x8(%esp)
  101f47:	00 
    b.cnt = 0;
  101f48:	c7 44 24 0c 00 00 00 	movl   $0x0,0xc(%esp)
  101f4f:	00 
    vprintfmt ((void*) putch, &b, fmt, ap);
  101f50:	ff b4 24 24 02 00 00 	pushl  0x224(%esp)
  101f57:	ff b4 24 24 02 00 00 	pushl  0x224(%esp)
  101f5e:	8d 44 24 10          	lea    0x10(%esp),%eax
  101f62:	50                   	push   %eax
  101f63:	68 f9 1e 10 00       	push   $0x101ef9
  101f68:	e8 4b 01 00 00       	call   1020b8 <vprintfmt>

    b.buf[b.idx] = 0;
  101f6d:	8b 44 24 18          	mov    0x18(%esp),%eax
  101f71:	c6 44 04 20 00       	movb   $0x0,0x20(%esp,%eax,1)
    cputs (b.buf);
  101f76:	8d 44 24 20          	lea    0x20(%esp),%eax
  101f7a:	e8 54 ff ff ff       	call   101ed3 <cputs>

    return b.cnt;
}
  101f7f:	8b 44 24 1c          	mov    0x1c(%esp),%eax
  101f83:	81 c4 2c 02 00 00    	add    $0x22c,%esp
  101f89:	c3                   	ret    

00101f8a <dprintf>:

int
dprintf (const char *fmt, ...)
{
  101f8a:	83 ec 0c             	sub    $0xc,%esp
    va_list ap;
    int cnt;

    va_start(ap, fmt);
  101f8d:	8d 44 24 14          	lea    0x14(%esp),%eax
    cnt = vdprintf (fmt, ap);
  101f91:	83 ec 08             	sub    $0x8,%esp
  101f94:	50                   	push   %eax
  101f95:	ff 74 24 1c          	pushl  0x1c(%esp)
  101f99:	e8 9c ff ff ff       	call   101f3a <vdprintf>
    va_end(ap);

    return cnt;
}
  101f9e:	83 c4 1c             	add    $0x1c,%esp
  101fa1:	c3                   	ret    

00101fa2 <printnum>:
 * using specified putch function and associated pointer putdat.
 */
static void
printnum(putch_t putch, void *putdat,
	 unsigned long long num, unsigned base, int width, int padc)
{
  101fa2:	55                   	push   %ebp
  101fa3:	57                   	push   %edi
  101fa4:	56                   	push   %esi
  101fa5:	53                   	push   %ebx
  101fa6:	83 ec 1c             	sub    $0x1c,%esp
  101fa9:	89 c6                	mov    %eax,%esi
  101fab:	89 d7                	mov    %edx,%edi
  101fad:	8b 44 24 30          	mov    0x30(%esp),%eax
  101fb1:	8b 54 24 34          	mov    0x34(%esp),%edx
  101fb5:	89 44 24 08          	mov    %eax,0x8(%esp)
  101fb9:	89 54 24 0c          	mov    %edx,0xc(%esp)
  101fbd:	8b 6c 24 40          	mov    0x40(%esp),%ebp
	/* first recursively print all preceding (more significant) digits */
	if (num >= base) {
  101fc1:	8b 4c 24 38          	mov    0x38(%esp),%ecx
  101fc5:	bb 00 00 00 00       	mov    $0x0,%ebx
  101fca:	89 0c 24             	mov    %ecx,(%esp)
  101fcd:	89 5c 24 04          	mov    %ebx,0x4(%esp)
  101fd1:	39 d3                	cmp    %edx,%ebx
  101fd3:	72 06                	jb     101fdb <printnum+0x39>
  101fd5:	39 44 24 38          	cmp    %eax,0x38(%esp)
  101fd9:	77 77                	ja     102052 <printnum+0xb0>
		printnum(putch, putdat, num / base, base, width - 1, padc);
  101fdb:	83 ec 0c             	sub    $0xc,%esp
  101fde:	55                   	push   %ebp
  101fdf:	8b 44 24 4c          	mov    0x4c(%esp),%eax
  101fe3:	8d 58 ff             	lea    -0x1(%eax),%ebx
  101fe6:	53                   	push   %ebx
  101fe7:	ff 74 24 4c          	pushl  0x4c(%esp)
  101feb:	83 ec 08             	sub    $0x8,%esp
  101fee:	ff 74 24 24          	pushl  0x24(%esp)
  101ff2:	ff 74 24 24          	pushl  0x24(%esp)
  101ff6:	ff 74 24 34          	pushl  0x34(%esp)
  101ffa:	ff 74 24 34          	pushl  0x34(%esp)
  101ffe:	e8 0d 29 00 00       	call   104910 <__udivdi3>
  102003:	83 c4 18             	add    $0x18,%esp
  102006:	52                   	push   %edx
  102007:	50                   	push   %eax
  102008:	89 fa                	mov    %edi,%edx
  10200a:	89 f0                	mov    %esi,%eax
  10200c:	e8 91 ff ff ff       	call   101fa2 <printnum>
  102011:	83 c4 20             	add    $0x20,%esp
  102014:	eb 11                	jmp    102027 <printnum+0x85>
	} else {
		/* print any needed pad characters before first digit */
		while (--width > 0)
			putch(padc, putdat);
  102016:	83 ec 08             	sub    $0x8,%esp
  102019:	57                   	push   %edi
  10201a:	55                   	push   %ebp
  10201b:	ff d6                	call   *%esi
  10201d:	83 c4 10             	add    $0x10,%esp
	/* first recursively print all preceding (more significant) digits */
	if (num >= base) {
		printnum(putch, putdat, num / base, base, width - 1, padc);
	} else {
		/* print any needed pad characters before first digit */
		while (--width > 0)
  102020:	83 eb 01             	sub    $0x1,%ebx
  102023:	85 db                	test   %ebx,%ebx
  102025:	7f ef                	jg     102016 <printnum+0x74>
			putch(padc, putdat);
	}

	// then print this (the least significant) digit
	putch("0123456789abcdef"[num % base], putdat);
  102027:	ff 74 24 04          	pushl  0x4(%esp)
  10202b:	ff 74 24 04          	pushl  0x4(%esp)
  10202f:	ff 74 24 14          	pushl  0x14(%esp)
  102033:	ff 74 24 14          	pushl  0x14(%esp)
  102037:	e8 04 2a 00 00       	call   104a40 <__umoddi3>
  10203c:	83 c4 08             	add    $0x8,%esp
  10203f:	57                   	push   %edi
  102040:	0f be 80 c6 4f 10 00 	movsbl 0x104fc6(%eax),%eax
  102047:	50                   	push   %eax
  102048:	ff d6                	call   *%esi
}
  10204a:	83 c4 2c             	add    $0x2c,%esp
  10204d:	5b                   	pop    %ebx
  10204e:	5e                   	pop    %esi
  10204f:	5f                   	pop    %edi
  102050:	5d                   	pop    %ebp
  102051:	c3                   	ret    
  102052:	8b 5c 24 3c          	mov    0x3c(%esp),%ebx
  102056:	eb c8                	jmp    102020 <printnum+0x7e>

00102058 <getuint>:
 * depending on the lflag parameter.
 */
static unsigned long long
getuint(va_list *ap, int lflag)
{
	if (lflag >= 2)
  102058:	83 fa 01             	cmp    $0x1,%edx
  10205b:	7f 13                	jg     102070 <getuint+0x18>
		return va_arg(*ap, unsigned long long);
	else if (lflag)
  10205d:	85 d2                	test   %edx,%edx
  10205f:	75 1c                	jne    10207d <getuint+0x25>
		return va_arg(*ap, unsigned long);
	else
		return va_arg(*ap, unsigned int);
  102061:	8b 10                	mov    (%eax),%edx
  102063:	8d 4a 04             	lea    0x4(%edx),%ecx
  102066:	89 08                	mov    %ecx,(%eax)
  102068:	8b 02                	mov    (%edx),%eax
  10206a:	ba 00 00 00 00       	mov    $0x0,%edx
}
  10206f:	c3                   	ret    
 */
static unsigned long long
getuint(va_list *ap, int lflag)
{
	if (lflag >= 2)
		return va_arg(*ap, unsigned long long);
  102070:	8b 10                	mov    (%eax),%edx
  102072:	8d 4a 08             	lea    0x8(%edx),%ecx
  102075:	89 08                	mov    %ecx,(%eax)
  102077:	8b 02                	mov    (%edx),%eax
  102079:	8b 52 04             	mov    0x4(%edx),%edx
  10207c:	c3                   	ret    
	else if (lflag)
		return va_arg(*ap, unsigned long);
  10207d:	8b 10                	mov    (%eax),%edx
  10207f:	8d 4a 04             	lea    0x4(%edx),%ecx
  102082:	89 08                	mov    %ecx,(%eax)
  102084:	8b 02                	mov    (%edx),%eax
  102086:	ba 00 00 00 00       	mov    $0x0,%edx
  10208b:	c3                   	ret    

0010208c <getint>:
 * because of sign extension
 */
static long long
getint(va_list *ap, int lflag)
{
	if (lflag >= 2)
  10208c:	83 fa 01             	cmp    $0x1,%edx
  10208f:	7f 0f                	jg     1020a0 <getint+0x14>
		return va_arg(*ap, long long);
	else if (lflag)
  102091:	85 d2                	test   %edx,%edx
  102093:	75 18                	jne    1020ad <getint+0x21>
		return va_arg(*ap, long);
	else
		return va_arg(*ap, int);
  102095:	8b 10                	mov    (%eax),%edx
  102097:	8d 4a 04             	lea    0x4(%edx),%ecx
  10209a:	89 08                	mov    %ecx,(%eax)
  10209c:	8b 02                	mov    (%edx),%eax
  10209e:	99                   	cltd   
}
  10209f:	c3                   	ret    
 */
static long long
getint(va_list *ap, int lflag)
{
	if (lflag >= 2)
		return va_arg(*ap, long long);
  1020a0:	8b 10                	mov    (%eax),%edx
  1020a2:	8d 4a 08             	lea    0x8(%edx),%ecx
  1020a5:	89 08                	mov    %ecx,(%eax)
  1020a7:	8b 02                	mov    (%edx),%eax
  1020a9:	8b 52 04             	mov    0x4(%edx),%edx
  1020ac:	c3                   	ret    
	else if (lflag)
		return va_arg(*ap, long);
  1020ad:	8b 10                	mov    (%eax),%edx
  1020af:	8d 4a 04             	lea    0x4(%edx),%ecx
  1020b2:	89 08                	mov    %ecx,(%eax)
  1020b4:	8b 02                	mov    (%edx),%eax
  1020b6:	99                   	cltd   
  1020b7:	c3                   	ret    

001020b8 <vprintfmt>:
		return va_arg(*ap, int);
}

void
vprintfmt(putch_t putch, void *putdat, const char *fmt, va_list ap)
{
  1020b8:	55                   	push   %ebp
  1020b9:	57                   	push   %edi
  1020ba:	56                   	push   %esi
  1020bb:	53                   	push   %ebx
  1020bc:	83 ec 2c             	sub    $0x2c,%esp
  1020bf:	8b 5c 24 40          	mov    0x40(%esp),%ebx
  1020c3:	8b 74 24 44          	mov    0x44(%esp),%esi
  1020c7:	8b 6c 24 48          	mov    0x48(%esp),%ebp
  1020cb:	89 f7                	mov    %esi,%edi
  1020cd:	89 de                	mov    %ebx,%esi
	unsigned long long num;
	int base, lflag, width, precision, altflag;
	char padc;

	while (1) {
		while ((ch = *(unsigned char *) fmt++) != '%') {
  1020cf:	8d 5d 01             	lea    0x1(%ebp),%ebx
  1020d2:	0f b6 45 00          	movzbl 0x0(%ebp),%eax
  1020d6:	83 f8 25             	cmp    $0x25,%eax
  1020d9:	74 16                	je     1020f1 <vprintfmt+0x39>
			if (ch == '\0')
  1020db:	85 c0                	test   %eax,%eax
  1020dd:	0f 84 ea 02 00 00    	je     1023cd <vprintfmt+0x315>
				return;
			putch(ch, putdat);
  1020e3:	83 ec 08             	sub    $0x8,%esp
  1020e6:	57                   	push   %edi
  1020e7:	50                   	push   %eax
  1020e8:	ff d6                	call   *%esi
	unsigned long long num;
	int base, lflag, width, precision, altflag;
	char padc;

	while (1) {
		while ((ch = *(unsigned char *) fmt++) != '%') {
  1020ea:	83 c4 10             	add    $0x10,%esp
  1020ed:	89 dd                	mov    %ebx,%ebp
  1020ef:	eb de                	jmp    1020cf <vprintfmt+0x17>
  1020f1:	c6 44 24 17 20       	movb   $0x20,0x17(%esp)
  1020f6:	c7 44 24 08 00 00 00 	movl   $0x0,0x8(%esp)
  1020fd:	00 
  1020fe:	c7 44 24 18 ff ff ff 	movl   $0xffffffff,0x18(%esp)
  102105:	ff 
  102106:	c7 44 24 10 ff ff ff 	movl   $0xffffffff,0x10(%esp)
  10210d:	ff 
  10210e:	c7 44 24 1c 00 00 00 	movl   $0x0,0x1c(%esp)
  102115:	00 
		width = -1;
		precision = -1;
		lflag = 0;
		altflag = 0;
	reswitch:
		switch (ch = *(unsigned char *) fmt++) {
  102116:	8d 6b 01             	lea    0x1(%ebx),%ebp
  102119:	0f b6 13             	movzbl (%ebx),%edx
  10211c:	0f b6 c2             	movzbl %dl,%eax
  10211f:	83 ea 23             	sub    $0x23,%edx
  102122:	80 fa 55             	cmp    $0x55,%dl
  102125:	0f 87 86 02 00 00    	ja     1023b1 <vprintfmt+0x2f9>
  10212b:	0f b6 d2             	movzbl %dl,%edx
  10212e:	ff 24 95 e0 4f 10 00 	jmp    *0x104fe0(,%edx,4)
  102135:	89 eb                	mov    %ebp,%ebx

			// flag to pad on the right
		case '-':
			padc = '-';
  102137:	c6 44 24 17 2d       	movb   $0x2d,0x17(%esp)
  10213c:	eb d8                	jmp    102116 <vprintfmt+0x5e>
		width = -1;
		precision = -1;
		lflag = 0;
		altflag = 0;
	reswitch:
		switch (ch = *(unsigned char *) fmt++) {
  10213e:	89 eb                	mov    %ebp,%ebx
			padc = '-';
			goto reswitch;

			// flag to pad with 0's instead of spaces
		case '0':
			padc = '0';
  102140:	c6 44 24 17 30       	movb   $0x30,0x17(%esp)
  102145:	eb cf                	jmp    102116 <vprintfmt+0x5e>
		width = -1;
		precision = -1;
		lflag = 0;
		altflag = 0;
	reswitch:
		switch (ch = *(unsigned char *) fmt++) {
  102147:	89 eb                	mov    %ebp,%ebx
			precision = va_arg(ap, int);
			goto process_precision;

		case '.':
			if (width < 0)
				width = 0;
  102149:	c7 44 24 10 00 00 00 	movl   $0x0,0x10(%esp)
  102150:	00 
  102151:	eb c3                	jmp    102116 <vprintfmt+0x5e>
		width = -1;
		precision = -1;
		lflag = 0;
		altflag = 0;
	reswitch:
		switch (ch = *(unsigned char *) fmt++) {
  102153:	b9 00 00 00 00       	mov    $0x0,%ecx
		case '6':
		case '7':
		case '8':
		case '9':
			for (precision = 0; ; ++fmt) {
				precision = precision * 10 + ch - '0';
  102158:	8d 0c 89             	lea    (%ecx,%ecx,4),%ecx
  10215b:	8d 14 09             	lea    (%ecx,%ecx,1),%edx
  10215e:	8d 4c 10 d0          	lea    -0x30(%eax,%edx,1),%ecx
				ch = *fmt;
  102162:	0f be 45 00          	movsbl 0x0(%ebp),%eax
				if (ch < '0' || ch > '9')
  102166:	8d 50 d0             	lea    -0x30(%eax),%edx
  102169:	83 fa 09             	cmp    $0x9,%edx
  10216c:	77 51                	ja     1021bf <vprintfmt+0x107>
		case '5':
		case '6':
		case '7':
		case '8':
		case '9':
			for (precision = 0; ; ++fmt) {
  10216e:	83 c5 01             	add    $0x1,%ebp
				precision = precision * 10 + ch - '0';
  102171:	eb e5                	jmp    102158 <vprintfmt+0xa0>
					break;
			}
			goto process_precision;

		case '*':
			precision = va_arg(ap, int);
  102173:	8b 44 24 4c          	mov    0x4c(%esp),%eax
  102177:	8d 50 04             	lea    0x4(%eax),%edx
  10217a:	89 54 24 4c          	mov    %edx,0x4c(%esp)
  10217e:	8b 00                	mov    (%eax),%eax
  102180:	89 44 24 18          	mov    %eax,0x18(%esp)
		width = -1;
		precision = -1;
		lflag = 0;
		altflag = 0;
	reswitch:
		switch (ch = *(unsigned char *) fmt++) {
  102184:	89 eb                	mov    %ebp,%ebx
		case '#':
			altflag = 1;
			goto reswitch;

		process_precision:
			if (width < 0)
  102186:	83 7c 24 10 00       	cmpl   $0x0,0x10(%esp)
  10218b:	79 89                	jns    102116 <vprintfmt+0x5e>
				width = precision, precision = -1;
  10218d:	8b 44 24 18          	mov    0x18(%esp),%eax
  102191:	89 44 24 10          	mov    %eax,0x10(%esp)
  102195:	c7 44 24 18 ff ff ff 	movl   $0xffffffff,0x18(%esp)
  10219c:	ff 
  10219d:	e9 74 ff ff ff       	jmp    102116 <vprintfmt+0x5e>
		case '*':
			precision = va_arg(ap, int);
			goto process_precision;

		case '.':
			if (width < 0)
  1021a2:	83 7c 24 10 00       	cmpl   $0x0,0x10(%esp)
  1021a7:	78 9e                	js     102147 <vprintfmt+0x8f>
		width = -1;
		precision = -1;
		lflag = 0;
		altflag = 0;
	reswitch:
		switch (ch = *(unsigned char *) fmt++) {
  1021a9:	89 eb                	mov    %ebp,%ebx
  1021ab:	e9 66 ff ff ff       	jmp    102116 <vprintfmt+0x5e>
  1021b0:	89 eb                	mov    %ebp,%ebx
			if (width < 0)
				width = 0;
			goto reswitch;

		case '#':
			altflag = 1;
  1021b2:	c7 44 24 08 01 00 00 	movl   $0x1,0x8(%esp)
  1021b9:	00 
			goto reswitch;
  1021ba:	e9 57 ff ff ff       	jmp    102116 <vprintfmt+0x5e>
  1021bf:	89 4c 24 18          	mov    %ecx,0x18(%esp)
  1021c3:	89 eb                	mov    %ebp,%ebx
  1021c5:	eb bf                	jmp    102186 <vprintfmt+0xce>
				width = precision, precision = -1;
			goto reswitch;

			// long flag (doubled for long long)
		case 'l':
			lflag++;
  1021c7:	83 44 24 1c 01       	addl   $0x1,0x1c(%esp)
		width = -1;
		precision = -1;
		lflag = 0;
		altflag = 0;
	reswitch:
		switch (ch = *(unsigned char *) fmt++) {
  1021cc:	89 eb                	mov    %ebp,%ebx
			goto reswitch;

			// long flag (doubled for long long)
		case 'l':
			lflag++;
			goto reswitch;
  1021ce:	e9 43 ff ff ff       	jmp    102116 <vprintfmt+0x5e>

			// character
		case 'c':
			putch(va_arg(ap, int), putdat);
  1021d3:	8b 44 24 4c          	mov    0x4c(%esp),%eax
  1021d7:	8d 50 04             	lea    0x4(%eax),%edx
  1021da:	89 54 24 4c          	mov    %edx,0x4c(%esp)
  1021de:	83 ec 08             	sub    $0x8,%esp
  1021e1:	57                   	push   %edi
  1021e2:	ff 30                	pushl  (%eax)
  1021e4:	ff d6                	call   *%esi
			break;
  1021e6:	83 c4 10             	add    $0x10,%esp
  1021e9:	e9 e1 fe ff ff       	jmp    1020cf <vprintfmt+0x17>

			// string
		case 's':
			if ((p = va_arg(ap, char *)) == NULL)
  1021ee:	8b 44 24 4c          	mov    0x4c(%esp),%eax
  1021f2:	8d 50 04             	lea    0x4(%eax),%edx
  1021f5:	89 54 24 4c          	mov    %edx,0x4c(%esp)
  1021f9:	8b 18                	mov    (%eax),%ebx
  1021fb:	85 db                	test   %ebx,%ebx
  1021fd:	74 28                	je     102227 <vprintfmt+0x16f>
				p = "(null)";
			if (width > 0 && padc != '-')
  1021ff:	83 7c 24 10 00       	cmpl   $0x0,0x10(%esp)
  102204:	0f 9f c2             	setg   %dl
  102207:	80 7c 24 17 2d       	cmpb   $0x2d,0x17(%esp)
  10220c:	0f 95 c0             	setne  %al
  10220f:	84 c2                	test   %al,%dl
  102211:	75 1b                	jne    10222e <vprintfmt+0x176>
  102213:	89 d8                	mov    %ebx,%eax
  102215:	89 74 24 40          	mov    %esi,0x40(%esp)
  102219:	8b 74 24 10          	mov    0x10(%esp),%esi
  10221d:	89 6c 24 48          	mov    %ebp,0x48(%esp)
  102221:	8b 6c 24 18          	mov    0x18(%esp),%ebp
  102225:	eb 62                	jmp    102289 <vprintfmt+0x1d1>
			break;

			// string
		case 's':
			if ((p = va_arg(ap, char *)) == NULL)
				p = "(null)";
  102227:	bb d7 4f 10 00       	mov    $0x104fd7,%ebx
  10222c:	eb d1                	jmp    1021ff <vprintfmt+0x147>
			if (width > 0 && padc != '-')
				for (width -= strnlen(p, precision);
  10222e:	83 ec 08             	sub    $0x8,%esp
  102231:	ff 74 24 20          	pushl  0x20(%esp)
  102235:	53                   	push   %ebx
  102236:	e8 05 fb ff ff       	call   101d40 <strnlen>
  10223b:	29 44 24 20          	sub    %eax,0x20(%esp)
  10223f:	8b 4c 24 20          	mov    0x20(%esp),%ecx
  102243:	83 c4 10             	add    $0x10,%esp
  102246:	89 6c 24 48          	mov    %ebp,0x48(%esp)
  10224a:	89 dd                	mov    %ebx,%ebp
  10224c:	89 cb                	mov    %ecx,%ebx
  10224e:	eb 12                	jmp    102262 <vprintfmt+0x1aa>
				     width > 0;
				     width--)
					putch(padc, putdat);
  102250:	83 ec 08             	sub    $0x8,%esp
  102253:	57                   	push   %edi
  102254:	0f be 44 24 23       	movsbl 0x23(%esp),%eax
  102259:	50                   	push   %eax
  10225a:	ff d6                	call   *%esi
			if ((p = va_arg(ap, char *)) == NULL)
				p = "(null)";
			if (width > 0 && padc != '-')
				for (width -= strnlen(p, precision);
				     width > 0;
				     width--)
  10225c:	83 eb 01             	sub    $0x1,%ebx
  10225f:	83 c4 10             	add    $0x10,%esp
			// string
		case 's':
			if ((p = va_arg(ap, char *)) == NULL)
				p = "(null)";
			if (width > 0 && padc != '-')
				for (width -= strnlen(p, precision);
  102262:	85 db                	test   %ebx,%ebx
  102264:	7f ea                	jg     102250 <vprintfmt+0x198>
  102266:	89 d9                	mov    %ebx,%ecx
  102268:	89 eb                	mov    %ebp,%ebx
  10226a:	89 d8                	mov    %ebx,%eax
  10226c:	89 74 24 40          	mov    %esi,0x40(%esp)
  102270:	89 ce                	mov    %ecx,%esi
  102272:	8b 6c 24 18          	mov    0x18(%esp),%ebp
  102276:	eb 11                	jmp    102289 <vprintfmt+0x1d1>
				     (precision < 0 || --precision >= 0);
			     width--)
				if (altflag && (ch < ' ' || ch > '~'))
					putch('?', putdat);
				else
					putch(ch, putdat);
  102278:	83 ec 08             	sub    $0x8,%esp
  10227b:	57                   	push   %edi
  10227c:	52                   	push   %edx
  10227d:	ff 54 24 50          	call   *0x50(%esp)
  102281:	83 c4 10             	add    $0x10,%esp
				     width--)
					putch(padc, putdat);
			for (;
			     (ch = *p++) != '\0' &&
				     (precision < 0 || --precision >= 0);
			     width--)
  102284:	83 ee 01             	sub    $0x1,%esi
				for (width -= strnlen(p, precision);
				     width > 0;
				     width--)
					putch(padc, putdat);
			for (;
			     (ch = *p++) != '\0' &&
  102287:	89 d8                	mov    %ebx,%eax
  102289:	8d 58 01             	lea    0x1(%eax),%ebx
  10228c:	0f b6 00             	movzbl (%eax),%eax
  10228f:	0f be d0             	movsbl %al,%edx
			if (width > 0 && padc != '-')
				for (width -= strnlen(p, precision);
				     width > 0;
				     width--)
					putch(padc, putdat);
			for (;
  102292:	85 d2                	test   %edx,%edx
  102294:	74 36                	je     1022cc <vprintfmt+0x214>
			     (ch = *p++) != '\0' &&
  102296:	85 ed                	test   %ebp,%ebp
  102298:	78 05                	js     10229f <vprintfmt+0x1e7>
				     (precision < 0 || --precision >= 0);
  10229a:	83 ed 01             	sub    $0x1,%ebp
  10229d:	78 21                	js     1022c0 <vprintfmt+0x208>
			     width--)
				if (altflag && (ch < ' ' || ch > '~'))
  10229f:	83 7c 24 08 00       	cmpl   $0x0,0x8(%esp)
  1022a4:	74 d2                	je     102278 <vprintfmt+0x1c0>
  1022a6:	0f be c0             	movsbl %al,%eax
  1022a9:	83 e8 20             	sub    $0x20,%eax
  1022ac:	83 f8 5e             	cmp    $0x5e,%eax
  1022af:	76 c7                	jbe    102278 <vprintfmt+0x1c0>
					putch('?', putdat);
  1022b1:	83 ec 08             	sub    $0x8,%esp
  1022b4:	57                   	push   %edi
  1022b5:	6a 3f                	push   $0x3f
  1022b7:	ff 54 24 50          	call   *0x50(%esp)
  1022bb:	83 c4 10             	add    $0x10,%esp
  1022be:	eb c4                	jmp    102284 <vprintfmt+0x1cc>
  1022c0:	89 f3                	mov    %esi,%ebx
  1022c2:	8b 74 24 40          	mov    0x40(%esp),%esi
  1022c6:	8b 6c 24 48          	mov    0x48(%esp),%ebp
  1022ca:	eb 0a                	jmp    1022d6 <vprintfmt+0x21e>
  1022cc:	89 f3                	mov    %esi,%ebx
  1022ce:	8b 74 24 40          	mov    0x40(%esp),%esi
  1022d2:	8b 6c 24 48          	mov    0x48(%esp),%ebp
				else
					putch(ch, putdat);
			for (; width > 0; width--)
  1022d6:	85 db                	test   %ebx,%ebx
  1022d8:	0f 8e f1 fd ff ff    	jle    1020cf <vprintfmt+0x17>
				putch(' ', putdat);
  1022de:	83 ec 08             	sub    $0x8,%esp
  1022e1:	57                   	push   %edi
  1022e2:	6a 20                	push   $0x20
  1022e4:	ff d6                	call   *%esi
			     width--)
				if (altflag && (ch < ' ' || ch > '~'))
					putch('?', putdat);
				else
					putch(ch, putdat);
			for (; width > 0; width--)
  1022e6:	83 eb 01             	sub    $0x1,%ebx
  1022e9:	83 c4 10             	add    $0x10,%esp
  1022ec:	eb e8                	jmp    1022d6 <vprintfmt+0x21e>
				putch(' ', putdat);
			break;

			// (signed) decimal
		case 'd':
			num = getint(&ap, lflag);
  1022ee:	8b 54 24 1c          	mov    0x1c(%esp),%edx
  1022f2:	8d 44 24 4c          	lea    0x4c(%esp),%eax
  1022f6:	e8 91 fd ff ff       	call   10208c <getint>
  1022fb:	89 44 24 08          	mov    %eax,0x8(%esp)
  1022ff:	89 54 24 0c          	mov    %edx,0xc(%esp)
			if ((long long) num < 0) {
  102303:	85 d2                	test   %edx,%edx
  102305:	78 07                	js     10230e <vprintfmt+0x256>
				putch('-', putdat);
				num = -(long long) num;
			}
			base = 10;
  102307:	bb 0a 00 00 00       	mov    $0xa,%ebx
  10230c:	eb 33                	jmp    102341 <vprintfmt+0x289>

			// (signed) decimal
		case 'd':
			num = getint(&ap, lflag);
			if ((long long) num < 0) {
				putch('-', putdat);
  10230e:	83 ec 08             	sub    $0x8,%esp
  102311:	57                   	push   %edi
  102312:	6a 2d                	push   $0x2d
  102314:	ff d6                	call   *%esi
				num = -(long long) num;
  102316:	8b 44 24 18          	mov    0x18(%esp),%eax
  10231a:	8b 54 24 1c          	mov    0x1c(%esp),%edx
  10231e:	f7 d8                	neg    %eax
  102320:	83 d2 00             	adc    $0x0,%edx
  102323:	f7 da                	neg    %edx
  102325:	83 c4 10             	add    $0x10,%esp
			}
			base = 10;
  102328:	bb 0a 00 00 00       	mov    $0xa,%ebx
  10232d:	eb 12                	jmp    102341 <vprintfmt+0x289>
			goto number;

			// unsigned decimal
		case 'u':
			num = getuint(&ap, lflag);
  10232f:	8b 54 24 1c          	mov    0x1c(%esp),%edx
  102333:	8d 44 24 4c          	lea    0x4c(%esp),%eax
  102337:	e8 1c fd ff ff       	call   102058 <getuint>
			base = 10;
  10233c:	bb 0a 00 00 00       	mov    $0xa,%ebx
			// (unsigned) hexadecimal
		case 'x':
			num = getuint(&ap, lflag);
			base = 16;
		number:
			printnum(putch, putdat, num, base, width, padc);
  102341:	83 ec 0c             	sub    $0xc,%esp
  102344:	0f be 4c 24 23       	movsbl 0x23(%esp),%ecx
  102349:	51                   	push   %ecx
  10234a:	ff 74 24 20          	pushl  0x20(%esp)
  10234e:	53                   	push   %ebx
  10234f:	52                   	push   %edx
  102350:	50                   	push   %eax
  102351:	89 fa                	mov    %edi,%edx
  102353:	89 f0                	mov    %esi,%eax
  102355:	e8 48 fc ff ff       	call   101fa2 <printnum>
			break;
  10235a:	83 c4 20             	add    $0x20,%esp
  10235d:	e9 6d fd ff ff       	jmp    1020cf <vprintfmt+0x17>
		case 'o':
      // TODO

			// pointer
		case 'p':
			putch('0', putdat);
  102362:	83 ec 08             	sub    $0x8,%esp
  102365:	57                   	push   %edi
  102366:	6a 30                	push   $0x30
  102368:	ff d6                	call   *%esi
			putch('x', putdat);
  10236a:	83 c4 08             	add    $0x8,%esp
  10236d:	57                   	push   %edi
  10236e:	6a 78                	push   $0x78
  102370:	ff d6                	call   *%esi
			num = (unsigned long long)
				(uintptr_t) va_arg(ap, void *);
  102372:	8b 44 24 5c          	mov    0x5c(%esp),%eax
  102376:	8d 50 04             	lea    0x4(%eax),%edx
  102379:	89 54 24 5c          	mov    %edx,0x5c(%esp)

			// pointer
		case 'p':
			putch('0', putdat);
			putch('x', putdat);
			num = (unsigned long long)
  10237d:	8b 00                	mov    (%eax),%eax
  10237f:	ba 00 00 00 00       	mov    $0x0,%edx
				(uintptr_t) va_arg(ap, void *);
			base = 16;
			goto number;
  102384:	83 c4 10             	add    $0x10,%esp
		case 'p':
			putch('0', putdat);
			putch('x', putdat);
			num = (unsigned long long)
				(uintptr_t) va_arg(ap, void *);
			base = 16;
  102387:	bb 10 00 00 00       	mov    $0x10,%ebx
			goto number;
  10238c:	eb b3                	jmp    102341 <vprintfmt+0x289>

			// (unsigned) hexadecimal
		case 'x':
			num = getuint(&ap, lflag);
  10238e:	8b 54 24 1c          	mov    0x1c(%esp),%edx
  102392:	8d 44 24 4c          	lea    0x4c(%esp),%eax
  102396:	e8 bd fc ff ff       	call   102058 <getuint>
			base = 16;
  10239b:	bb 10 00 00 00       	mov    $0x10,%ebx
  1023a0:	eb 9f                	jmp    102341 <vprintfmt+0x289>
			printnum(putch, putdat, num, base, width, padc);
			break;

			// escaped '%' character
		case '%':
			putch(ch, putdat);
  1023a2:	83 ec 08             	sub    $0x8,%esp
  1023a5:	57                   	push   %edi
  1023a6:	50                   	push   %eax
  1023a7:	ff d6                	call   *%esi
			break;
  1023a9:	83 c4 10             	add    $0x10,%esp
  1023ac:	e9 1e fd ff ff       	jmp    1020cf <vprintfmt+0x17>

			// unrecognized escape sequence - just print it literally
		default:
			putch('%', putdat);
  1023b1:	83 ec 08             	sub    $0x8,%esp
  1023b4:	57                   	push   %edi
  1023b5:	6a 25                	push   $0x25
  1023b7:	ff d6                	call   *%esi
			for (fmt--; fmt[-1] != '%'; fmt--)
  1023b9:	83 c4 10             	add    $0x10,%esp
  1023bc:	89 dd                	mov    %ebx,%ebp
  1023be:	80 7d ff 25          	cmpb   $0x25,-0x1(%ebp)
  1023c2:	0f 84 07 fd ff ff    	je     1020cf <vprintfmt+0x17>
  1023c8:	83 ed 01             	sub    $0x1,%ebp
  1023cb:	eb f1                	jmp    1023be <vprintfmt+0x306>
				/* do nothing */;
			break;
		}
	}
}
  1023cd:	83 c4 2c             	add    $0x2c,%esp
  1023d0:	5b                   	pop    %ebx
  1023d1:	5e                   	pop    %esi
  1023d2:	5f                   	pop    %edi
  1023d3:	5d                   	pop    %ebp
  1023d4:	c3                   	ret    

001023d5 <tss_switch>:

segdesc_t gdt_LOC[CPU_GDT_NDESC];
tss_t tss_LOC[64];

void tss_switch(uint32_t pid)
{
  1023d5:	83 ec 18             	sub    $0x18,%esp
	gdt_LOC[CPU_GDT_TSS >> 3] =
		SEGDESC16(STS_T32A,
  1023d8:	69 44 24 1c ec 00 00 	imul   $0xec,0x1c(%esp),%eax
  1023df:	00 
  1023e0:	05 40 f0 9a 00       	add    $0x9af040,%eax
  1023e5:	89 c1                	mov    %eax,%ecx
  1023e7:	c1 e9 10             	shr    $0x10,%ecx
  1023ea:	89 c2                	mov    %eax,%edx
  1023ec:	c1 ea 18             	shr    $0x18,%edx
segdesc_t gdt_LOC[CPU_GDT_NDESC];
tss_t tss_LOC[64];

void tss_switch(uint32_t pid)
{
	gdt_LOC[CPU_GDT_TSS >> 3] =
  1023ef:	66 c7 05 28 f0 9a 00 	movw   $0xeb,0x9af028
  1023f6:	eb 00 
  1023f8:	66 a3 2a f0 9a 00    	mov    %ax,0x9af02a
  1023fe:	88 0d 2c f0 9a 00    	mov    %cl,0x9af02c
  102404:	0f b6 05 2d f0 9a 00 	movzbl 0x9af02d,%eax
  10240b:	83 e0 f0             	and    $0xfffffff0,%eax
  10240e:	83 c8 09             	or     $0x9,%eax
  102411:	83 e0 9f             	and    $0xffffff9f,%eax
  102414:	83 c8 80             	or     $0xffffff80,%eax
  102417:	c6 05 2e f0 9a 00 40 	movb   $0x40,0x9af02e
  10241e:	88 15 2f f0 9a 00    	mov    %dl,0x9af02f
		SEGDESC16(STS_T32A,
			  (uint32_t) (&tss_LOC[pid]), sizeof(tss_t) - 1, 0);
	gdt_LOC[CPU_GDT_TSS >> 3].sd_s = 0;
  102424:	83 e0 ef             	and    $0xffffffef,%eax
  102427:	a2 2d f0 9a 00       	mov    %al,0x9af02d
	ltr(CPU_GDT_TSS);
  10242c:	6a 28                	push   $0x28
  10242e:	e8 5d 03 00 00       	call   102790 <ltr>
}
  102433:	83 c4 1c             	add    $0x1c,%esp
  102436:	c3                   	ret    

00102437 <seg_init>:

void seg_init (void)
{
  102437:	56                   	push   %esi
  102438:	53                   	push   %ebx
  102439:	83 ec 1c             	sub    $0x1c,%esp
	/* clear BSS */
	extern uint8_t end[], edata[];
	memzero (edata, bsp_kstack - edata);
  10243c:	b8 00 e0 96 00       	mov    $0x96e000,%eax
  102441:	2d 20 ba 12 00       	sub    $0x12ba20,%eax
  102446:	50                   	push   %eax
  102447:	68 20 ba 12 00       	push   $0x12ba20
  10244c:	e8 56 f9 ff ff       	call   101da7 <memzero>
	memzero (bsp_kstack + 4096, end - bsp_kstack - 4096);
  102451:	b8 20 3c df 00       	mov    $0xdf3c20,%eax
  102456:	2d 00 e0 96 00       	sub    $0x96e000,%eax
  10245b:	83 c4 08             	add    $0x8,%esp
  10245e:	50                   	push   %eax
  10245f:	68 00 f0 96 00       	push   $0x96f000
  102464:	e8 3e f9 ff ff       	call   101da7 <memzero>

	/* setup GDT */
	gdt_LOC[0] = SEGDESC_NULL
  102469:	c7 05 00 f0 9a 00 00 	movl   $0x0,0x9af000
  102470:	00 00 00 
  102473:	c7 05 04 f0 9a 00 00 	movl   $0x0,0x9af004
  10247a:	00 00 00 
	;
	/* 0x08: kernel code */
	gdt_LOC[CPU_GDT_KCODE >> 3] = SEGDESC32(STA_X | STA_R, 0x0, 0xffffffff, 0);
  10247d:	66 c7 05 08 f0 9a 00 	movw   $0xffff,0x9af008
  102484:	ff ff 
  102486:	66 c7 05 0a f0 9a 00 	movw   $0x0,0x9af00a
  10248d:	00 00 
  10248f:	c6 05 0c f0 9a 00 00 	movb   $0x0,0x9af00c
  102496:	0f b6 05 0d f0 9a 00 	movzbl 0x9af00d,%eax
  10249d:	83 e0 f0             	and    $0xfffffff0,%eax
  1024a0:	83 c8 1a             	or     $0x1a,%eax
  1024a3:	83 e0 9f             	and    $0xffffff9f,%eax
  1024a6:	83 c8 80             	or     $0xffffff80,%eax
  1024a9:	a2 0d f0 9a 00       	mov    %al,0x9af00d
  1024ae:	0f b6 05 0e f0 9a 00 	movzbl 0x9af00e,%eax
  1024b5:	83 c8 0f             	or     $0xf,%eax
  1024b8:	83 e0 cf             	and    $0xffffffcf,%eax
  1024bb:	83 c8 c0             	or     $0xffffffc0,%eax
  1024be:	a2 0e f0 9a 00       	mov    %al,0x9af00e
  1024c3:	c6 05 0f f0 9a 00 00 	movb   $0x0,0x9af00f
	/* 0x10: kernel data */
	gdt_LOC[CPU_GDT_KDATA >> 3] = SEGDESC32(STA_W, 0x0, 0xffffffff, 0);
  1024ca:	66 c7 05 10 f0 9a 00 	movw   $0xffff,0x9af010
  1024d1:	ff ff 
  1024d3:	66 c7 05 12 f0 9a 00 	movw   $0x0,0x9af012
  1024da:	00 00 
  1024dc:	c6 05 14 f0 9a 00 00 	movb   $0x0,0x9af014
  1024e3:	0f b6 05 15 f0 9a 00 	movzbl 0x9af015,%eax
  1024ea:	83 e0 f0             	and    $0xfffffff0,%eax
  1024ed:	83 c8 12             	or     $0x12,%eax
  1024f0:	83 e0 9f             	and    $0xffffff9f,%eax
  1024f3:	83 c8 80             	or     $0xffffff80,%eax
  1024f6:	a2 15 f0 9a 00       	mov    %al,0x9af015
  1024fb:	0f b6 05 16 f0 9a 00 	movzbl 0x9af016,%eax
  102502:	83 c8 0f             	or     $0xf,%eax
  102505:	83 e0 cf             	and    $0xffffffcf,%eax
  102508:	83 c8 c0             	or     $0xffffffc0,%eax
  10250b:	a2 16 f0 9a 00       	mov    %al,0x9af016
  102510:	c6 05 17 f0 9a 00 00 	movb   $0x0,0x9af017
	/* 0x18: user code */
	gdt_LOC[CPU_GDT_UCODE >> 3] = SEGDESC32(STA_X | STA_R, 0x00000000,
  102517:	66 c7 05 18 f0 9a 00 	movw   $0xffff,0x9af018
  10251e:	ff ff 
  102520:	66 c7 05 1a f0 9a 00 	movw   $0x0,0x9af01a
  102527:	00 00 
  102529:	c6 05 1c f0 9a 00 00 	movb   $0x0,0x9af01c
  102530:	c6 05 1d f0 9a 00 fa 	movb   $0xfa,0x9af01d
  102537:	0f b6 05 1e f0 9a 00 	movzbl 0x9af01e,%eax
  10253e:	83 c8 0f             	or     $0xf,%eax
  102541:	83 e0 cf             	and    $0xffffffcf,%eax
  102544:	83 c8 c0             	or     $0xffffffc0,%eax
  102547:	a2 1e f0 9a 00       	mov    %al,0x9af01e
  10254c:	c6 05 1f f0 9a 00 00 	movb   $0x0,0x9af01f
		0xffffffff, 3);
	/* 0x20: user data */
	gdt_LOC[CPU_GDT_UDATA >> 3] = SEGDESC32(STA_W, 0x00000000, 0xffffffff, 3);
  102553:	66 c7 05 20 f0 9a 00 	movw   $0xffff,0x9af020
  10255a:	ff ff 
  10255c:	66 c7 05 22 f0 9a 00 	movw   $0x0,0x9af022
  102563:	00 00 
  102565:	c6 05 24 f0 9a 00 00 	movb   $0x0,0x9af024
  10256c:	c6 05 25 f0 9a 00 f2 	movb   $0xf2,0x9af025
  102573:	0f b6 05 26 f0 9a 00 	movzbl 0x9af026,%eax
  10257a:	83 c8 0f             	or     $0xf,%eax
  10257d:	83 e0 cf             	and    $0xffffffcf,%eax
  102580:	83 c8 c0             	or     $0xffffffc0,%eax
  102583:	a2 26 f0 9a 00       	mov    %al,0x9af026
  102588:	c6 05 27 f0 9a 00 00 	movb   $0x0,0x9af027

	/* setup TSS */
	tss0.ts_esp0 = (uint32_t) bsp_kstack + 4096;
  10258f:	ba 60 ce 12 00       	mov    $0x12ce60,%edx
  102594:	c7 05 64 ce 12 00 00 	movl   $0x96f000,0x12ce64
  10259b:	f0 96 00 
	tss0.ts_ss0 = CPU_GDT_KDATA;
  10259e:	66 c7 05 68 ce 12 00 	movw   $0x10,0x12ce68
  1025a5:	10 00 
	gdt_LOC[CPU_GDT_TSS >> 3] = SEGDESC16(STS_T32A, (uint32_t) (&tss0),
  1025a7:	66 c7 05 28 f0 9a 00 	movw   $0xeb,0x9af028
  1025ae:	eb 00 
  1025b0:	66 89 15 2a f0 9a 00 	mov    %dx,0x9af02a
  1025b7:	89 d0                	mov    %edx,%eax
  1025b9:	c1 e8 10             	shr    $0x10,%eax
  1025bc:	a2 2c f0 9a 00       	mov    %al,0x9af02c
  1025c1:	0f b6 05 2d f0 9a 00 	movzbl 0x9af02d,%eax
  1025c8:	83 e0 f0             	and    $0xfffffff0,%eax
  1025cb:	83 c8 09             	or     $0x9,%eax
  1025ce:	83 e0 9f             	and    $0xffffff9f,%eax
  1025d1:	83 c8 80             	or     $0xffffff80,%eax
  1025d4:	c6 05 2e f0 9a 00 40 	movb   $0x40,0x9af02e
  1025db:	c1 ea 18             	shr    $0x18,%edx
  1025de:	88 15 2f f0 9a 00    	mov    %dl,0x9af02f
		sizeof(tss_t) - 1, 0);
	gdt_LOC[CPU_GDT_TSS >> 3].sd_s = 0;
  1025e4:	83 e0 ef             	and    $0xffffffef,%eax
  1025e7:	a2 2d f0 9a 00       	mov    %al,0x9af02d

	pseudodesc_t gdt_desc =
  1025ec:	66 c7 44 24 1a 2f 00 	movw   $0x2f,0x1a(%esp)
  1025f3:	c7 44 24 1c 00 f0 9a 	movl   $0x9af000,0x1c(%esp)
  1025fa:	00 
		{ .pd_lim = sizeof(gdt_LOC) - 1, .pd_base = (uint32_t) gdt_LOC };
	asm volatile("lgdt %0" :: "m" (gdt_desc));
  1025fb:	0f 01 54 24 1a       	lgdtl  0x1a(%esp)
	asm volatile("movw %%ax,%%gs" :: "a" (CPU_GDT_KDATA));
  102600:	b8 10 00 00 00       	mov    $0x10,%eax
  102605:	8e e8                	mov    %eax,%gs
	asm volatile("movw %%ax,%%fs" :: "a" (CPU_GDT_KDATA));
  102607:	8e e0                	mov    %eax,%fs
	asm volatile("movw %%ax,%%es" :: "a" (CPU_GDT_KDATA));
  102609:	8e c0                	mov    %eax,%es
	asm volatile("movw %%ax,%%ds" :: "a" (CPU_GDT_KDATA));
  10260b:	8e d8                	mov    %eax,%ds
	asm volatile("movw %%ax,%%ss" :: "a" (CPU_GDT_KDATA));
  10260d:	8e d0                	mov    %eax,%ss
	/* reload %cs */
	asm volatile("ljmp %0,$1f\n 1:\n" :: "i" (CPU_GDT_KCODE));
  10260f:	ea 16 26 10 00 08 00 	ljmp   $0x8,$0x102616

	/*
	 * Load a null LDT.
	 */
	lldt (0);
  102616:	c7 04 24 00 00 00 00 	movl   $0x0,(%esp)
  10261d:	e8 e3 00 00 00       	call   102705 <lldt>

	/*
	 * Load the bootstrap TSS.
	 */
	ltr (CPU_GDT_TSS);
  102622:	c7 04 24 28 00 00 00 	movl   $0x28,(%esp)
  102629:	e8 62 01 00 00       	call   102790 <ltr>

	/*
	 * Load IDT.
	 */
	extern pseudodesc_t idt_pd;
	asm volatile("lidt %0" : : "m" (idt_pd));
  10262e:	0f 01 1d 00 93 10 00 	lidtl  0x109300

	/*
	 * Initialize all TSS structures for processes.
	 */
	unsigned int pid;
	memzero (tss_LOC, sizeof(tss_t) * 64);
  102635:	83 c4 08             	add    $0x8,%esp
  102638:	68 00 3b 00 00       	push   $0x3b00
  10263d:	68 40 f0 9a 00       	push   $0x9af040
  102642:	e8 60 f7 ff ff       	call   101da7 <memzero>
	memzero (STACK_LOC, sizeof(char) * 64 * 4096);
  102647:	83 c4 08             	add    $0x8,%esp
  10264a:	68 00 00 04 00       	push   $0x40000
  10264f:	68 00 f0 96 00       	push   $0x96f000
  102654:	e8 4e f7 ff ff       	call   101da7 <memzero>
	for (pid = 0; pid < 64; pid++)
  102659:	83 c4 10             	add    $0x10,%esp
  10265c:	bb 00 00 00 00       	mov    $0x0,%ebx
  102661:	eb 4f                	jmp    1026b2 <seg_init+0x27b>
	{
		tss_LOC[pid].ts_esp0 = (uint32_t) STACK_LOC[pid] + 4096;
  102663:	89 da                	mov    %ebx,%edx
  102665:	c1 e2 0c             	shl    $0xc,%edx
  102668:	81 c2 00 00 97 00    	add    $0x970000,%edx
  10266e:	69 c3 ec 00 00 00    	imul   $0xec,%ebx,%eax
  102674:	8d b0 40 f0 9a 00    	lea    0x9af040(%eax),%esi
  10267a:	89 90 44 f0 9a 00    	mov    %edx,0x9af044(%eax)
		tss_LOC[pid].ts_ss0 = CPU_GDT_KDATA;
  102680:	66 c7 80 48 f0 9a 00 	movw   $0x10,0x9af048(%eax)
  102687:	10 00 
		tss_LOC[pid].ts_iomb = offsetof(tss_t, ts_iopm);
  102689:	66 c7 80 a6 f0 9a 00 	movw   $0x68,0x9af0a6(%eax)
  102690:	68 00 
		memzero (tss_LOC[pid].ts_iopm, sizeof(uint8_t) * 128);
  102692:	05 a8 f0 9a 00       	add    $0x9af0a8,%eax
  102697:	83 ec 08             	sub    $0x8,%esp
  10269a:	68 80 00 00 00       	push   $0x80
  10269f:	50                   	push   %eax
  1026a0:	e8 02 f7 ff ff       	call   101da7 <memzero>
		tss_LOC[pid].ts_iopm[128] = 0xff;
  1026a5:	c6 86 e8 00 00 00 ff 	movb   $0xff,0xe8(%esi)
	 * Initialize all TSS structures for processes.
	 */
	unsigned int pid;
	memzero (tss_LOC, sizeof(tss_t) * 64);
	memzero (STACK_LOC, sizeof(char) * 64 * 4096);
	for (pid = 0; pid < 64; pid++)
  1026ac:	83 c3 01             	add    $0x1,%ebx
  1026af:	83 c4 10             	add    $0x10,%esp
  1026b2:	83 fb 3f             	cmp    $0x3f,%ebx
  1026b5:	76 ac                	jbe    102663 <seg_init+0x22c>
		tss_LOC[pid].ts_ss0 = CPU_GDT_KDATA;
		tss_LOC[pid].ts_iomb = offsetof(tss_t, ts_iopm);
		memzero (tss_LOC[pid].ts_iopm, sizeof(uint8_t) * 128);
		tss_LOC[pid].ts_iopm[128] = 0xff;
	}
}
  1026b7:	83 c4 14             	add    $0x14,%esp
  1026ba:	5b                   	pop    %ebx
  1026bb:	5e                   	pop    %esi
  1026bc:	c3                   	ret    

001026bd <max>:
#include "types.h"

uint32_t
max(uint32_t a, uint32_t b)
{
  1026bd:	8b 54 24 04          	mov    0x4(%esp),%edx
  1026c1:	8b 44 24 08          	mov    0x8(%esp),%eax
	return (a > b) ? a : b;
  1026c5:	39 d0                	cmp    %edx,%eax
  1026c7:	0f 42 c2             	cmovb  %edx,%eax
}
  1026ca:	c3                   	ret    

001026cb <min>:

uint32_t
min(uint32_t a, uint32_t b)
{
  1026cb:	8b 54 24 04          	mov    0x4(%esp),%edx
  1026cf:	8b 44 24 08          	mov    0x8(%esp),%eax
	return (a < b) ? a : b;
  1026d3:	39 d0                	cmp    %edx,%eax
  1026d5:	0f 47 c2             	cmova  %edx,%eax
}
  1026d8:	c3                   	ret    

001026d9 <rounddown>:

uint32_t
rounddown(uint32_t a, uint32_t n)
{
  1026d9:	8b 4c 24 04          	mov    0x4(%esp),%ecx
	return a - a % n;
  1026dd:	89 c8                	mov    %ecx,%eax
  1026df:	ba 00 00 00 00       	mov    $0x0,%edx
  1026e4:	f7 74 24 08          	divl   0x8(%esp)
  1026e8:	89 c8                	mov    %ecx,%eax
  1026ea:	29 d0                	sub    %edx,%eax
}
  1026ec:	c3                   	ret    

001026ed <roundup>:

uint32_t
roundup(uint32_t a, uint32_t n)
{
  1026ed:	8b 54 24 08          	mov    0x8(%esp),%edx
	return rounddown(a+n-1, n);
  1026f1:	89 d0                	mov    %edx,%eax
  1026f3:	03 44 24 04          	add    0x4(%esp),%eax
  1026f7:	52                   	push   %edx
  1026f8:	83 e8 01             	sub    $0x1,%eax
  1026fb:	50                   	push   %eax
  1026fc:	e8 d8 ff ff ff       	call   1026d9 <rounddown>
  102701:	83 c4 08             	add    $0x8,%esp
}
  102704:	c3                   	ret    

00102705 <lldt>:
#include "x86.h"

gcc_inline void
lldt(uint16_t sel)
{
	__asm __volatile("lldt %0" : : "r" (sel));
  102705:	8b 44 24 04          	mov    0x4(%esp),%eax
  102709:	0f 00 d0             	lldt   %ax
  10270c:	c3                   	ret    

0010270d <cli>:
}

gcc_inline void
cli(void)
{
	__asm __volatile("cli":::"memory");
  10270d:	fa                   	cli    
  10270e:	c3                   	ret    

0010270f <sti>:
}

gcc_inline void
sti(void)
{
	__asm __volatile("sti;nop");
  10270f:	fb                   	sti    
  102710:	90                   	nop
  102711:	c3                   	ret    

00102712 <rdmsr>:

gcc_inline uint64_t
rdmsr(uint32_t msr)
{
	uint64_t rv;
	__asm __volatile("rdmsr" : "=A" (rv) : "c" (msr));
  102712:	8b 4c 24 04          	mov    0x4(%esp),%ecx
  102716:	0f 32                	rdmsr  
	return rv;
}
  102718:	c3                   	ret    

00102719 <wrmsr>:

gcc_inline void
wrmsr(uint32_t msr, uint64_t newval)
{
        __asm __volatile("wrmsr" : : "A" (newval), "c" (msr));
  102719:	8b 44 24 08          	mov    0x8(%esp),%eax
  10271d:	8b 54 24 0c          	mov    0xc(%esp),%edx
  102721:	8b 4c 24 04          	mov    0x4(%esp),%ecx
  102725:	0f 30                	wrmsr  
  102727:	c3                   	ret    

00102728 <halt>:
}

gcc_inline void
halt(void)
{
	__asm __volatile("hlt");
  102728:	f4                   	hlt    
  102729:	c3                   	ret    

0010272a <rdtsc>:
gcc_inline uint64_t
rdtsc(void)
{
	uint64_t rv;

	__asm __volatile("rdtsc" : "=A" (rv));
  10272a:	0f 31                	rdtsc  
	return (rv);
}
  10272c:	c3                   	ret    

0010272d <enable_sse>:

gcc_inline uint32_t
rcr4(void)
{
	uint32_t cr4;
	__asm __volatile("movl %%cr4,%0" : "=r" (cr4));
  10272d:	0f 20 e0             	mov    %cr4,%eax
gcc_inline void
enable_sse(void)
{
	uint32_t cr0, cr4;

	cr4 = rcr4() | CR4_OSFXSR | CR4_OSXMMEXCPT;
  102730:	80 cc 06             	or     $0x6,%ah
	FENCE();
  102733:	0f ae f0             	mfence 
}

gcc_inline void
lcr4(uint32_t val)
{
	__asm __volatile("movl %0,%%cr4" : : "r" (val));
  102736:	0f 22 e0             	mov    %eax,%cr4

gcc_inline uint32_t
rcr0(void)
{
	uint32_t val;
	__asm __volatile("movl %%cr0,%0" : "=r" (val));
  102739:	0f 20 c0             	mov    %cr0,%eax
	cr4 = rcr4() | CR4_OSFXSR | CR4_OSXMMEXCPT;
	FENCE();
	lcr4(cr4);

	cr0 = rcr0() | CR0_MP;
	FENCE();
  10273c:	0f ae f0             	mfence 
  10273f:	c3                   	ret    

00102740 <cpuid>:
}

gcc_inline void
cpuid(uint32_t info,
      uint32_t *eaxp, uint32_t *ebxp, uint32_t *ecxp, uint32_t *edxp)
{
  102740:	55                   	push   %ebp
  102741:	57                   	push   %edi
  102742:	56                   	push   %esi
  102743:	53                   	push   %ebx
  102744:	8b 44 24 14          	mov    0x14(%esp),%eax
  102748:	8b 7c 24 18          	mov    0x18(%esp),%edi
  10274c:	8b 6c 24 1c          	mov    0x1c(%esp),%ebp
  102750:	8b 74 24 24          	mov    0x24(%esp),%esi
	uint32_t eax, ebx, ecx, edx;
	__asm __volatile("cpuid"
  102754:	0f a2                	cpuid  
			 : "=a" (eax), "=b" (ebx), "=c" (ecx), "=d" (edx)
			 : "a" (info));
	if (eaxp)
  102756:	85 ff                	test   %edi,%edi
  102758:	74 02                	je     10275c <cpuid+0x1c>
		*eaxp = eax;
  10275a:	89 07                	mov    %eax,(%edi)
	if (ebxp)
  10275c:	85 ed                	test   %ebp,%ebp
  10275e:	74 03                	je     102763 <cpuid+0x23>
		*ebxp = ebx;
  102760:	89 5d 00             	mov    %ebx,0x0(%ebp)
	if (ecxp)
  102763:	83 7c 24 20 00       	cmpl   $0x0,0x20(%esp)
  102768:	74 06                	je     102770 <cpuid+0x30>
		*ecxp = ecx;
  10276a:	8b 44 24 20          	mov    0x20(%esp),%eax
  10276e:	89 08                	mov    %ecx,(%eax)
	if (edxp)
  102770:	85 f6                	test   %esi,%esi
  102772:	74 02                	je     102776 <cpuid+0x36>
		*edxp = edx;
  102774:	89 16                	mov    %edx,(%esi)
}
  102776:	5b                   	pop    %ebx
  102777:	5e                   	pop    %esi
  102778:	5f                   	pop    %edi
  102779:	5d                   	pop    %ebp
  10277a:	c3                   	ret    

0010277b <rcr3>:

gcc_inline uint32_t
rcr3(void)
{
    uint32_t val;
    __asm __volatile("movl %%cr3,%0" : "=r" (val));
  10277b:	0f 20 d8             	mov    %cr3,%eax
    return val;
}
  10277e:	c3                   	ret    

0010277f <outl>:

gcc_inline void
outl(int port, uint32_t data)
{
	__asm __volatile("outl %0,%w1" : : "a" (data), "d" (port));
  10277f:	8b 44 24 08          	mov    0x8(%esp),%eax
  102783:	8b 54 24 04          	mov    0x4(%esp),%edx
  102787:	ef                   	out    %eax,(%dx)
  102788:	c3                   	ret    

00102789 <inl>:

gcc_inline uint32_t
inl(int port)
{
	uint32_t data;
	__asm __volatile("inl %w1,%0" : "=a" (data) : "d" (port));
  102789:	8b 54 24 04          	mov    0x4(%esp),%edx
  10278d:	ed                   	in     (%dx),%eax
	return data;
}
  10278e:	c3                   	ret    

0010278f <smp_wmb>:

gcc_inline void
smp_wmb(void)
{
	__asm __volatile("":::"memory");
  10278f:	c3                   	ret    

00102790 <ltr>:


gcc_inline void
ltr(uint16_t sel)
{
	__asm __volatile("ltr %0" : : "r" (sel));
  102790:	8b 44 24 04          	mov    0x4(%esp),%eax
  102794:	0f 00 d8             	ltr    %ax
  102797:	c3                   	ret    

00102798 <lcr0>:
}

gcc_inline void
lcr0(uint32_t val)
{
	__asm __volatile("movl %0,%%cr0" : : "r" (val));
  102798:	8b 44 24 04          	mov    0x4(%esp),%eax
  10279c:	0f 22 c0             	mov    %eax,%cr0
  10279f:	c3                   	ret    

001027a0 <rcr0>:

gcc_inline uint32_t
rcr0(void)
{
	uint32_t val;
	__asm __volatile("movl %%cr0,%0" : "=r" (val));
  1027a0:	0f 20 c0             	mov    %cr0,%eax
	return val;
}
  1027a3:	c3                   	ret    

001027a4 <rcr2>:

gcc_inline uint32_t
rcr2(void)
{
	uint32_t val;
	__asm __volatile("movl %%cr2,%0" : "=r" (val));
  1027a4:	0f 20 d0             	mov    %cr2,%eax
	return val;
}
  1027a7:	c3                   	ret    

001027a8 <lcr3>:

gcc_inline void
lcr3(uint32_t val)
{
	__asm __volatile("movl %0,%%cr3" : : "r" (val));
  1027a8:	8b 44 24 04          	mov    0x4(%esp),%eax
  1027ac:	0f 22 d8             	mov    %eax,%cr3
  1027af:	c3                   	ret    

001027b0 <lcr4>:
}

gcc_inline void
lcr4(uint32_t val)
{
	__asm __volatile("movl %0,%%cr4" : : "r" (val));
  1027b0:	8b 44 24 04          	mov    0x4(%esp),%eax
  1027b4:	0f 22 e0             	mov    %eax,%cr4
  1027b7:	c3                   	ret    

001027b8 <rcr4>:

gcc_inline uint32_t
rcr4(void)
{
	uint32_t cr4;
	__asm __volatile("movl %%cr4,%0" : "=r" (cr4));
  1027b8:	0f 20 e0             	mov    %cr4,%eax
	return cr4;
}
  1027bb:	c3                   	ret    

001027bc <inb>:

gcc_inline uint8_t
inb(int port)
{
	uint8_t data;
	__asm __volatile("inb %w1,%0" : "=a" (data) : "d" (port));
  1027bc:	8b 54 24 04          	mov    0x4(%esp),%edx
  1027c0:	ec                   	in     (%dx),%al
	return data;
}
  1027c1:	c3                   	ret    

001027c2 <insl>:

gcc_inline void
insl(int port, void *addr, int cnt)
{
  1027c2:	57                   	push   %edi
	__asm __volatile("cld\n\trepne\n\tinsl"                 :
  1027c3:	8b 7c 24 0c          	mov    0xc(%esp),%edi
  1027c7:	8b 4c 24 10          	mov    0x10(%esp),%ecx
  1027cb:	8b 54 24 08          	mov    0x8(%esp),%edx
  1027cf:	fc                   	cld    
  1027d0:	f2 6d                	repnz insl (%dx),%es:(%edi)
			 "=D" (addr), "=c" (cnt)                :
			 "d" (port), "0" (addr), "1" (cnt)      :
			 "memory", "cc");
}
  1027d2:	5f                   	pop    %edi
  1027d3:	c3                   	ret    

001027d4 <outb>:

gcc_inline void
outb(int port, uint8_t data)
{
	__asm __volatile("outb %0,%w1" : : "a" (data), "d" (port));
  1027d4:	8b 44 24 08          	mov    0x8(%esp),%eax
  1027d8:	8b 54 24 04          	mov    0x4(%esp),%edx
  1027dc:	ee                   	out    %al,(%dx)
  1027dd:	c3                   	ret    

001027de <outsw>:
}

gcc_inline void
outsw(int port, const void *addr, int cnt)
{
  1027de:	56                   	push   %esi
	__asm __volatile("cld\n\trepne\n\toutsw"                :
  1027df:	8b 74 24 0c          	mov    0xc(%esp),%esi
  1027e3:	8b 4c 24 10          	mov    0x10(%esp),%ecx
  1027e7:	8b 54 24 08          	mov    0x8(%esp),%edx
  1027eb:	fc                   	cld    
  1027ec:	f2 66 6f             	repnz outsw %ds:(%esi),(%dx)
			 "=S" (addr), "=c" (cnt)                :
			 "d" (port), "0" (addr), "1" (cnt)      :
			 "cc");
}
  1027ef:	5e                   	pop    %esi
  1027f0:	c3                   	ret    

001027f1 <mon_start_user>:
extern void set_curid(unsigned int);
extern void kctx_switch(unsigned int, unsigned int);

int
mon_start_user (int argc, char **argv, struct Trapframe *tf)
{
  1027f1:	53                   	push   %ebx
  1027f2:	83 ec 10             	sub    $0x10,%esp
    unsigned int idle_pid;
    idle_pid = proc_create (_binary___obj_user_idle_idle_start, 10000);
  1027f5:	68 10 27 00 00       	push   $0x2710
  1027fa:	68 0c 93 10 00       	push   $0x10930c
  1027ff:	e8 6c 17 00 00       	call   103f70 <proc_create>
  102804:	89 c3                	mov    %eax,%ebx
    KERN_DEBUG("process idle %d is created.\n", idle_pid);
  102806:	50                   	push   %eax
  102807:	68 38 51 10 00       	push   $0x105138
  10280c:	6a 2d                	push   $0x2d
  10280e:	68 55 51 10 00       	push   $0x105155
  102813:	e8 f3 f5 ff ff       	call   101e0b <debug_normal>

    KERN_INFO("Start user-space ... \n");
  102818:	83 c4 14             	add    $0x14,%esp
  10281b:	68 68 51 10 00       	push   $0x105168
  102820:	e8 ce f5 ff ff       	call   101df3 <debug_info>

    tqueue_remove (NUM_IDS, idle_pid);
  102825:	83 c4 08             	add    $0x8,%esp
  102828:	53                   	push   %ebx
  102829:	6a 40                	push   $0x40
  10282b:	e8 60 15 00 00       	call   103d90 <tqueue_remove>
    tcb_set_state (idle_pid, TSTATE_RUN);
  102830:	83 c4 08             	add    $0x8,%esp
  102833:	6a 01                	push   $0x1
  102835:	53                   	push   %ebx
  102836:	e8 f5 12 00 00       	call   103b30 <tcb_set_state>
    set_curid (idle_pid);
  10283b:	89 1c 24             	mov    %ebx,(%esp)
  10283e:	e8 0d 16 00 00       	call   103e50 <set_curid>
    kctx_switch (0, idle_pid);
  102843:	83 c4 08             	add    $0x8,%esp
  102846:	53                   	push   %ebx
  102847:	6a 00                	push   $0x0
  102849:	e8 32 12 00 00       	call   103a80 <kctx_switch>

    KERN_PANIC("mon_startuser() should never reach here.\n");
  10284e:	83 c4 0c             	add    $0xc,%esp
  102851:	68 6c 52 10 00       	push   $0x10526c
  102856:	6a 36                	push   $0x36
  102858:	68 55 51 10 00       	push   $0x105155
  10285d:	e8 d3 f5 ff ff       	call   101e35 <debug_panic>
}
  102862:	83 c4 18             	add    $0x18,%esp
  102865:	5b                   	pop    %ebx
  102866:	c3                   	ret    

00102867 <mon_help>:

int
mon_help (int argc, char **argv, struct Trapframe *tf)
{
  102867:	53                   	push   %ebx
  102868:	83 ec 08             	sub    $0x8,%esp
	int i;

	for (i = 0; i < NCOMMANDS; i++)
  10286b:	bb 00 00 00 00       	mov    $0x0,%ebx
  102870:	eb 2b                	jmp    10289d <mon_help+0x36>
		dprintf("%s - %s\n", commands[i].name, commands[i].desc);
  102872:	83 ec 04             	sub    $0x4,%esp
  102875:	8d 04 1b             	lea    (%ebx,%ebx,1),%eax
  102878:	01 d8                	add    %ebx,%eax
  10287a:	8d 14 85 00 00 00 00 	lea    0x0(,%eax,4),%edx
  102881:	ff b2 84 53 10 00    	pushl  0x105384(%edx)
  102887:	ff b2 80 53 10 00    	pushl  0x105380(%edx)
  10288d:	68 7f 51 10 00       	push   $0x10517f
  102892:	e8 f3 f6 ff ff       	call   101f8a <dprintf>
int
mon_help (int argc, char **argv, struct Trapframe *tf)
{
	int i;

	for (i = 0; i < NCOMMANDS; i++)
  102897:	83 c3 01             	add    $0x1,%ebx
  10289a:	83 c4 10             	add    $0x10,%esp
  10289d:	83 fb 02             	cmp    $0x2,%ebx
  1028a0:	76 d0                	jbe    102872 <mon_help+0xb>
		dprintf("%s - %s\n", commands[i].name, commands[i].desc);
	return 0;
}
  1028a2:	b8 00 00 00 00       	mov    $0x0,%eax
  1028a7:	83 c4 08             	add    $0x8,%esp
  1028aa:	5b                   	pop    %ebx
  1028ab:	c3                   	ret    

001028ac <mon_kerninfo>:

int
mon_kerninfo (int argc, char **argv, struct Trapframe *tf)
{
  1028ac:	83 ec 18             	sub    $0x18,%esp
	extern uint8_t start[], etext[], edata[], end[];

	dprintf("Special kernel symbols:\n");
  1028af:	68 88 51 10 00       	push   $0x105188
  1028b4:	e8 d1 f6 ff ff       	call   101f8a <dprintf>
	dprintf("  start  %08x\n", start);
  1028b9:	83 c4 08             	add    $0x8,%esp
  1028bc:	68 60 2f 10 00       	push   $0x102f60
  1028c1:	68 a1 51 10 00       	push   $0x1051a1
  1028c6:	e8 bf f6 ff ff       	call   101f8a <dprintf>
	dprintf("  etext  %08x\n", etext);
  1028cb:	83 c4 08             	add    $0x8,%esp
  1028ce:	68 81 4b 10 00       	push   $0x104b81
  1028d3:	68 b0 51 10 00       	push   $0x1051b0
  1028d8:	e8 ad f6 ff ff       	call   101f8a <dprintf>
	dprintf("  edata  %08x\n", edata);
  1028dd:	83 c4 08             	add    $0x8,%esp
  1028e0:	68 20 ba 12 00       	push   $0x12ba20
  1028e5:	68 bf 51 10 00       	push   $0x1051bf
  1028ea:	e8 9b f6 ff ff       	call   101f8a <dprintf>
	dprintf("  end    %08x\n", end);
  1028ef:	83 c4 08             	add    $0x8,%esp
  1028f2:	68 20 4c df 00       	push   $0xdf4c20
  1028f7:	68 ce 51 10 00       	push   $0x1051ce
  1028fc:	e8 89 f6 ff ff       	call   101f8a <dprintf>
	dprintf("Kernel executable memory footprint: %dKB\n",
		ROUNDUP(end - start, 1024) / 1024);
  102901:	b8 20 4c df 00       	mov    $0xdf4c20,%eax
  102906:	2d 61 2b 10 00       	sub    $0x102b61,%eax
  10290b:	89 c1                	mov    %eax,%ecx
  10290d:	c1 f9 1f             	sar    $0x1f,%ecx
  102910:	c1 e9 16             	shr    $0x16,%ecx
  102913:	8d 14 08             	lea    (%eax,%ecx,1),%edx
  102916:	81 e2 ff 03 00 00    	and    $0x3ff,%edx
  10291c:	29 ca                	sub    %ecx,%edx
  10291e:	29 d0                	sub    %edx,%eax
	dprintf("Special kernel symbols:\n");
	dprintf("  start  %08x\n", start);
	dprintf("  etext  %08x\n", etext);
	dprintf("  edata  %08x\n", edata);
	dprintf("  end    %08x\n", end);
	dprintf("Kernel executable memory footprint: %dKB\n",
  102920:	83 c4 08             	add    $0x8,%esp
  102923:	8d 90 ff 03 00 00    	lea    0x3ff(%eax),%edx
  102929:	85 c0                	test   %eax,%eax
  10292b:	0f 49 d0             	cmovns %eax,%edx
  10292e:	c1 fa 0a             	sar    $0xa,%edx
  102931:	52                   	push   %edx
  102932:	68 98 52 10 00       	push   $0x105298
  102937:	e8 4e f6 ff ff       	call   101f8a <dprintf>
		ROUNDUP(end - start, 1024) / 1024);
	return 0;
}
  10293c:	b8 00 00 00 00       	mov    $0x0,%eax
  102941:	83 c4 1c             	add    $0x1c,%esp
  102944:	c3                   	ret    

00102945 <runcmd>:
#define WHITESPACE "\t\r\n "
#define MAXARGS 16

static int
runcmd (char *buf, struct Trapframe *tf)
{
  102945:	55                   	push   %ebp
  102946:	57                   	push   %edi
  102947:	56                   	push   %esi
  102948:	53                   	push   %ebx
  102949:	83 ec 4c             	sub    $0x4c,%esp
  10294c:	89 c3                	mov    %eax,%ebx
  10294e:	89 d7                	mov    %edx,%edi
	char *argv[MAXARGS];
	int i;

	// Parse the command buffer into whitespace-separated arguments
	argc = 0;
	argv[argc] = 0;
  102950:	c7 04 24 00 00 00 00 	movl   $0x0,(%esp)
	int argc;
	char *argv[MAXARGS];
	int i;

	// Parse the command buffer into whitespace-separated arguments
	argc = 0;
  102957:	bd 00 00 00 00       	mov    $0x0,%ebp
  10295c:	eb 67                	jmp    1029c5 <runcmd+0x80>
	argv[argc] = 0;
	while (1)
	{
		// gobble whitespace
		while (*buf && strchr (WHITESPACE, *buf))
  10295e:	83 ec 08             	sub    $0x8,%esp
  102961:	0f be c0             	movsbl %al,%eax
  102964:	50                   	push   %eax
  102965:	68 dd 51 10 00       	push   $0x1051dd
  10296a:	e8 18 f4 ff ff       	call   101d87 <strchr>
  10296f:	83 c4 10             	add    $0x10,%esp
  102972:	85 c0                	test   %eax,%eax
  102974:	74 56                	je     1029cc <runcmd+0x87>
			*buf++ = 0;
  102976:	c6 03 00             	movb   $0x0,(%ebx)
  102979:	89 ee                	mov    %ebp,%esi
  10297b:	8d 5b 01             	lea    0x1(%ebx),%ebx
  10297e:	eb 43                	jmp    1029c3 <runcmd+0x7e>
			break;

		// save and scan past next arg
		if (argc == MAXARGS - 1)
		{
			dprintf("Too many arguments (max %d)\n", MAXARGS);
  102980:	83 ec 08             	sub    $0x8,%esp
  102983:	6a 10                	push   $0x10
  102985:	68 e2 51 10 00       	push   $0x1051e2
  10298a:	e8 fb f5 ff ff       	call   101f8a <dprintf>
			return 0;
  10298f:	83 c4 10             	add    $0x10,%esp
  102992:	bd 00 00 00 00       	mov    $0x0,%ebp
		if (strcmp (argv[0], commands[i].name) == 0)
			return commands[i].func (argc, argv, tf);
	}
	dprintf("Unknown command '%s'\n", argv[0]);
	return 0;
}
  102997:	89 e8                	mov    %ebp,%eax
  102999:	83 c4 4c             	add    $0x4c,%esp
  10299c:	5b                   	pop    %ebx
  10299d:	5e                   	pop    %esi
  10299e:	5f                   	pop    %edi
  10299f:	5d                   	pop    %ebp
  1029a0:	c3                   	ret    
			dprintf("Too many arguments (max %d)\n", MAXARGS);
			return 0;
		}
		argv[argc++] = buf;
		while (*buf && !strchr (WHITESPACE, *buf))
			buf++;
  1029a1:	83 c3 01             	add    $0x1,%ebx
		{
			dprintf("Too many arguments (max %d)\n", MAXARGS);
			return 0;
		}
		argv[argc++] = buf;
		while (*buf && !strchr (WHITESPACE, *buf))
  1029a4:	0f b6 03             	movzbl (%ebx),%eax
  1029a7:	84 c0                	test   %al,%al
  1029a9:	74 18                	je     1029c3 <runcmd+0x7e>
  1029ab:	83 ec 08             	sub    $0x8,%esp
  1029ae:	0f be c0             	movsbl %al,%eax
  1029b1:	50                   	push   %eax
  1029b2:	68 dd 51 10 00       	push   $0x1051dd
  1029b7:	e8 cb f3 ff ff       	call   101d87 <strchr>
  1029bc:	83 c4 10             	add    $0x10,%esp
  1029bf:	85 c0                	test   %eax,%eax
  1029c1:	74 de                	je     1029a1 <runcmd+0x5c>
	argv[argc] = 0;
	while (1)
	{
		// gobble whitespace
		while (*buf && strchr (WHITESPACE, *buf))
			*buf++ = 0;
  1029c3:	89 f5                	mov    %esi,%ebp
	argc = 0;
	argv[argc] = 0;
	while (1)
	{
		// gobble whitespace
		while (*buf && strchr (WHITESPACE, *buf))
  1029c5:	0f b6 03             	movzbl (%ebx),%eax
  1029c8:	84 c0                	test   %al,%al
  1029ca:	75 92                	jne    10295e <runcmd+0x19>
			*buf++ = 0;
		if (*buf == 0)
  1029cc:	80 3b 00             	cmpb   $0x0,(%ebx)
  1029cf:	74 0d                	je     1029de <runcmd+0x99>
			break;

		// save and scan past next arg
		if (argc == MAXARGS - 1)
  1029d1:	83 fd 0f             	cmp    $0xf,%ebp
  1029d4:	74 aa                	je     102980 <runcmd+0x3b>
		{
			dprintf("Too many arguments (max %d)\n", MAXARGS);
			return 0;
		}
		argv[argc++] = buf;
  1029d6:	8d 75 01             	lea    0x1(%ebp),%esi
  1029d9:	89 1c ac             	mov    %ebx,(%esp,%ebp,4)
		while (*buf && !strchr (WHITESPACE, *buf))
  1029dc:	eb c6                	jmp    1029a4 <runcmd+0x5f>
			buf++;
	}
	argv[argc] = 0;
  1029de:	c7 04 ac 00 00 00 00 	movl   $0x0,(%esp,%ebp,4)

	// Lookup and invoke the command
	if (argc == 0)
  1029e5:	85 ed                	test   %ebp,%ebp
  1029e7:	74 ae                	je     102997 <runcmd+0x52>
  1029e9:	bb 00 00 00 00       	mov    $0x0,%ebx
		return 0;
	for (i = 0; i < NCOMMANDS; i++)
  1029ee:	83 fb 02             	cmp    $0x2,%ebx
  1029f1:	77 4c                	ja     102a3f <runcmd+0xfa>
	{
		if (strcmp (argv[0], commands[i].name) == 0)
  1029f3:	83 ec 08             	sub    $0x8,%esp
  1029f6:	8d 14 5b             	lea    (%ebx,%ebx,2),%edx
  1029f9:	8d 04 95 00 00 00 00 	lea    0x0(,%edx,4),%eax
  102a00:	ff b0 80 53 10 00    	pushl  0x105380(%eax)
  102a06:	ff 74 24 0c          	pushl  0xc(%esp)
  102a0a:	e8 54 f3 ff ff       	call   101d63 <strcmp>
  102a0f:	83 c4 10             	add    $0x10,%esp
  102a12:	85 c0                	test   %eax,%eax
  102a14:	74 05                	je     102a1b <runcmd+0xd6>
	argv[argc] = 0;

	// Lookup and invoke the command
	if (argc == 0)
		return 0;
	for (i = 0; i < NCOMMANDS; i++)
  102a16:	83 c3 01             	add    $0x1,%ebx
  102a19:	eb d3                	jmp    1029ee <runcmd+0xa9>
	{
		if (strcmp (argv[0], commands[i].name) == 0)
			return commands[i].func (argc, argv, tf);
  102a1b:	8d 14 5b             	lea    (%ebx,%ebx,2),%edx
  102a1e:	8d 04 95 00 00 00 00 	lea    0x0(,%edx,4),%eax
  102a25:	83 ec 04             	sub    $0x4,%esp
  102a28:	57                   	push   %edi
  102a29:	8d 54 24 08          	lea    0x8(%esp),%edx
  102a2d:	52                   	push   %edx
  102a2e:	55                   	push   %ebp
  102a2f:	ff 90 88 53 10 00    	call   *0x105388(%eax)
  102a35:	89 c5                	mov    %eax,%ebp
  102a37:	83 c4 10             	add    $0x10,%esp
  102a3a:	e9 58 ff ff ff       	jmp    102997 <runcmd+0x52>
	}
	dprintf("Unknown command '%s'\n", argv[0]);
  102a3f:	83 ec 08             	sub    $0x8,%esp
  102a42:	ff 74 24 08          	pushl  0x8(%esp)
  102a46:	68 ff 51 10 00       	push   $0x1051ff
  102a4b:	e8 3a f5 ff ff       	call   101f8a <dprintf>
	return 0;
  102a50:	83 c4 10             	add    $0x10,%esp
  102a53:	bd 00 00 00 00       	mov    $0x0,%ebp
  102a58:	e9 3a ff ff ff       	jmp    102997 <runcmd+0x52>

00102a5d <monitor>:
}

void
monitor (struct Trapframe *tf)
{
  102a5d:	53                   	push   %ebx
  102a5e:	83 ec 14             	sub    $0x14,%esp
  102a61:	8b 5c 24 1c          	mov    0x1c(%esp),%ebx
	char *buf;

	dprintf("\n****************************************\n\n");
  102a65:	68 c4 52 10 00       	push   $0x1052c4
  102a6a:	e8 1b f5 ff ff       	call   101f8a <dprintf>
	dprintf("Welcome to the mCertiKOS kernel monitor!\n");
  102a6f:	c7 04 24 f0 52 10 00 	movl   $0x1052f0,(%esp)
  102a76:	e8 0f f5 ff ff       	call   101f8a <dprintf>
	dprintf("\n****************************************\n\n");
  102a7b:	c7 04 24 c4 52 10 00 	movl   $0x1052c4,(%esp)
  102a82:	e8 03 f5 ff ff       	call   101f8a <dprintf>
	dprintf("Type 'help' for a list of commands.\n");
  102a87:	c7 04 24 1c 53 10 00 	movl   $0x10531c,(%esp)
  102a8e:	e8 f7 f4 ff ff       	call   101f8a <dprintf>
  102a93:	83 c4 10             	add    $0x10,%esp

	while (1)
	{
		buf = (char *) readline ("$> ");
  102a96:	83 ec 0c             	sub    $0xc,%esp
  102a99:	68 15 52 10 00       	push   $0x105215
  102a9e:	e8 2d d9 ff ff       	call   1003d0 <readline>
		if (buf != NULL)
  102aa3:	83 c4 10             	add    $0x10,%esp
  102aa6:	85 c0                	test   %eax,%eax
  102aa8:	74 ec                	je     102a96 <monitor+0x39>
			if (runcmd (buf, tf) < 0)
  102aaa:	89 da                	mov    %ebx,%edx
  102aac:	e8 94 fe ff ff       	call   102945 <runcmd>
  102ab1:	85 c0                	test   %eax,%eax
  102ab3:	79 e1                	jns    102a96 <monitor+0x39>
				break;
	}
}
  102ab5:	83 c4 08             	add    $0x8,%esp
  102ab8:	5b                   	pop    %ebx
  102ab9:	c3                   	ret    

00102aba <pt_copyin>:
extern void alloc_page(unsigned int pid, unsigned int vaddr, unsigned int perm);
extern unsigned int get_ptbl_entry_by_va(unsigned int pid, unsigned int vaddr);

size_t
pt_copyin(uint32_t pmap_id, uintptr_t uva, void *kva, size_t len)
{
  102aba:	55                   	push   %ebp
  102abb:	57                   	push   %edi
  102abc:	56                   	push   %esi
  102abd:	53                   	push   %ebx
  102abe:	83 ec 1c             	sub    $0x1c,%esp
  102ac1:	8b 7c 24 34          	mov    0x34(%esp),%edi
  102ac5:	8b 6c 24 38          	mov    0x38(%esp),%ebp
  102ac9:	8b 74 24 3c          	mov    0x3c(%esp),%esi
	if (!(VM_USERLO <= uva && uva + len <= VM_USERHI))
  102acd:	81 ff ff ff ff 3f    	cmp    $0x3fffffff,%edi
  102ad3:	0f 86 9a 00 00 00    	jbe    102b73 <pt_copyin+0xb9>
  102ad9:	8d 04 37             	lea    (%edi,%esi,1),%eax
  102adc:	3d 00 00 00 f0       	cmp    $0xf0000000,%eax
  102ae1:	0f 87 a0 00 00 00    	ja     102b87 <pt_copyin+0xcd>
		return 0;

	if ((uintptr_t) kva + len > VM_USERHI)
  102ae7:	8d 04 2e             	lea    (%esi,%ebp,1),%eax
  102aea:	3d 00 00 00 f0       	cmp    $0xf0000000,%eax
  102aef:	0f 87 9c 00 00 00    	ja     102b91 <pt_copyin+0xd7>
  102af5:	c7 44 24 0c 00 00 00 	movl   $0x0,0xc(%esp)
  102afc:	00 
  102afd:	eb 3b                	jmp    102b3a <pt_copyin+0x80>
		if ((uva_pa & PTE_P) == 0) {
			alloc_page(pmap_id, uva, PTE_P | PTE_U | PTE_W);
			uva_pa = get_ptbl_entry_by_va(pmap_id, uva);
		}

		uva_pa = (uva_pa & 0xfffff000) + (uva % PAGESIZE);
  102aff:	25 00 f0 ff ff       	and    $0xfffff000,%eax
  102b04:	89 fa                	mov    %edi,%edx
  102b06:	81 e2 ff 0f 00 00    	and    $0xfff,%edx
  102b0c:	09 d0                	or     %edx,%eax

		size_t size = (len < PAGESIZE - uva_pa % PAGESIZE) ?
			len : PAGESIZE - uva_pa % PAGESIZE;
  102b0e:	89 c2                	mov    %eax,%edx
  102b10:	81 e2 ff 0f 00 00    	and    $0xfff,%edx
  102b16:	bb 00 10 00 00       	mov    $0x1000,%ebx
  102b1b:	29 d3                	sub    %edx,%ebx
			uva_pa = get_ptbl_entry_by_va(pmap_id, uva);
		}

		uva_pa = (uva_pa & 0xfffff000) + (uva % PAGESIZE);

		size_t size = (len < PAGESIZE - uva_pa % PAGESIZE) ?
  102b1d:	39 de                	cmp    %ebx,%esi
  102b1f:	0f 46 de             	cmovbe %esi,%ebx
			len : PAGESIZE - uva_pa % PAGESIZE;

		memcpy(kva, (void *) uva_pa, size);
  102b22:	83 ec 04             	sub    $0x4,%esp
  102b25:	53                   	push   %ebx
  102b26:	50                   	push   %eax
  102b27:	55                   	push   %ebp
  102b28:	e8 c2 f1 ff ff       	call   101cef <memcpy>

		len -= size;
  102b2d:	29 de                	sub    %ebx,%esi
		uva += size;
  102b2f:	01 df                	add    %ebx,%edi
		kva += size;
  102b31:	01 dd                	add    %ebx,%ebp
		copied += size;
  102b33:	01 5c 24 1c          	add    %ebx,0x1c(%esp)
  102b37:	83 c4 10             	add    $0x10,%esp
	if ((uintptr_t) kva + len > VM_USERHI)
		return 0;

	size_t copied = 0;

	while (len) {
  102b3a:	85 f6                	test   %esi,%esi
  102b3c:	74 3d                	je     102b7b <pt_copyin+0xc1>
		uintptr_t uva_pa = get_ptbl_entry_by_va(pmap_id, uva);
  102b3e:	83 ec 08             	sub    $0x8,%esp
  102b41:	57                   	push   %edi
  102b42:	ff 74 24 3c          	pushl  0x3c(%esp)
  102b46:	e8 65 0a 00 00       	call   1035b0 <get_ptbl_entry_by_va>

		if ((uva_pa & PTE_P) == 0) {
  102b4b:	83 c4 10             	add    $0x10,%esp
  102b4e:	a8 01                	test   $0x1,%al
  102b50:	75 ad                	jne    102aff <pt_copyin+0x45>
			alloc_page(pmap_id, uva, PTE_P | PTE_U | PTE_W);
  102b52:	83 ec 04             	sub    $0x4,%esp
  102b55:	6a 07                	push   $0x7
  102b57:	57                   	push   %edi
  102b58:	ff 74 24 3c          	pushl  0x3c(%esp)
  102b5c:	e8 2f 0e 00 00       	call   103990 <alloc_page>
			uva_pa = get_ptbl_entry_by_va(pmap_id, uva);
  102b61:	83 c4 08             	add    $0x8,%esp
  102b64:	57                   	push   %edi
  102b65:	ff 74 24 3c          	pushl  0x3c(%esp)
  102b69:	e8 42 0a 00 00       	call   1035b0 <get_ptbl_entry_by_va>
  102b6e:	83 c4 10             	add    $0x10,%esp
  102b71:	eb 8c                	jmp    102aff <pt_copyin+0x45>

size_t
pt_copyin(uint32_t pmap_id, uintptr_t uva, void *kva, size_t len)
{
	if (!(VM_USERLO <= uva && uva + len <= VM_USERHI))
		return 0;
  102b73:	c7 44 24 0c 00 00 00 	movl   $0x0,0xc(%esp)
  102b7a:	00 
		kva += size;
		copied += size;
	}

	return copied;
}
  102b7b:	8b 44 24 0c          	mov    0xc(%esp),%eax
  102b7f:	83 c4 1c             	add    $0x1c,%esp
  102b82:	5b                   	pop    %ebx
  102b83:	5e                   	pop    %esi
  102b84:	5f                   	pop    %edi
  102b85:	5d                   	pop    %ebp
  102b86:	c3                   	ret    

size_t
pt_copyin(uint32_t pmap_id, uintptr_t uva, void *kva, size_t len)
{
	if (!(VM_USERLO <= uva && uva + len <= VM_USERHI))
		return 0;
  102b87:	c7 44 24 0c 00 00 00 	movl   $0x0,0xc(%esp)
  102b8e:	00 
  102b8f:	eb ea                	jmp    102b7b <pt_copyin+0xc1>

	if ((uintptr_t) kva + len > VM_USERHI)
		return 0;
  102b91:	c7 44 24 0c 00 00 00 	movl   $0x0,0xc(%esp)
  102b98:	00 
  102b99:	eb e0                	jmp    102b7b <pt_copyin+0xc1>

00102b9b <pt_copyout>:
	return copied;
}

size_t
pt_copyout(void *kva, uint32_t pmap_id, uintptr_t uva, size_t len)
{
  102b9b:	55                   	push   %ebp
  102b9c:	57                   	push   %edi
  102b9d:	56                   	push   %esi
  102b9e:	53                   	push   %ebx
  102b9f:	83 ec 1c             	sub    $0x1c,%esp
  102ba2:	8b 6c 24 30          	mov    0x30(%esp),%ebp
  102ba6:	8b 7c 24 38          	mov    0x38(%esp),%edi
  102baa:	8b 74 24 3c          	mov    0x3c(%esp),%esi
	if (!(VM_USERLO <= uva && uva + len <= VM_USERHI))
  102bae:	81 ff ff ff ff 3f    	cmp    $0x3fffffff,%edi
  102bb4:	0f 86 9a 00 00 00    	jbe    102c54 <pt_copyout+0xb9>
  102bba:	8d 04 37             	lea    (%edi,%esi,1),%eax
  102bbd:	3d 00 00 00 f0       	cmp    $0xf0000000,%eax
  102bc2:	0f 87 a0 00 00 00    	ja     102c68 <pt_copyout+0xcd>
		return 0;

	if ((uintptr_t) kva + len > VM_USERHI)
  102bc8:	8d 04 2e             	lea    (%esi,%ebp,1),%eax
  102bcb:	3d 00 00 00 f0       	cmp    $0xf0000000,%eax
  102bd0:	0f 87 9c 00 00 00    	ja     102c72 <pt_copyout+0xd7>
  102bd6:	c7 44 24 0c 00 00 00 	movl   $0x0,0xc(%esp)
  102bdd:	00 
  102bde:	eb 3b                	jmp    102c1b <pt_copyout+0x80>
		if ((uva_pa & PTE_P) == 0) {
			alloc_page(pmap_id, uva, PTE_P | PTE_U | PTE_W);
			uva_pa = get_ptbl_entry_by_va(pmap_id, uva);
		}

		uva_pa = (uva_pa & 0xfffff000) + (uva % PAGESIZE);
  102be0:	25 00 f0 ff ff       	and    $0xfffff000,%eax
  102be5:	89 fa                	mov    %edi,%edx
  102be7:	81 e2 ff 0f 00 00    	and    $0xfff,%edx
  102bed:	09 d0                	or     %edx,%eax

		size_t size = (len < PAGESIZE - uva_pa % PAGESIZE) ?
			len : PAGESIZE - uva_pa % PAGESIZE;
  102bef:	89 c2                	mov    %eax,%edx
  102bf1:	81 e2 ff 0f 00 00    	and    $0xfff,%edx
  102bf7:	bb 00 10 00 00       	mov    $0x1000,%ebx
  102bfc:	29 d3                	sub    %edx,%ebx
			uva_pa = get_ptbl_entry_by_va(pmap_id, uva);
		}

		uva_pa = (uva_pa & 0xfffff000) + (uva % PAGESIZE);

		size_t size = (len < PAGESIZE - uva_pa % PAGESIZE) ?
  102bfe:	39 de                	cmp    %ebx,%esi
  102c00:	0f 46 de             	cmovbe %esi,%ebx
			len : PAGESIZE - uva_pa % PAGESIZE;

		memcpy((void *) uva_pa, kva, size);
  102c03:	83 ec 04             	sub    $0x4,%esp
  102c06:	53                   	push   %ebx
  102c07:	55                   	push   %ebp
  102c08:	50                   	push   %eax
  102c09:	e8 e1 f0 ff ff       	call   101cef <memcpy>

		len -= size;
  102c0e:	29 de                	sub    %ebx,%esi
		uva += size;
  102c10:	01 df                	add    %ebx,%edi
		kva += size;
  102c12:	01 dd                	add    %ebx,%ebp
		copied += size;
  102c14:	01 5c 24 1c          	add    %ebx,0x1c(%esp)
  102c18:	83 c4 10             	add    $0x10,%esp
	if ((uintptr_t) kva + len > VM_USERHI)
		return 0;

	size_t copied = 0;

	while (len) {
  102c1b:	85 f6                	test   %esi,%esi
  102c1d:	74 3d                	je     102c5c <pt_copyout+0xc1>
		uintptr_t uva_pa = get_ptbl_entry_by_va(pmap_id, uva);
  102c1f:	83 ec 08             	sub    $0x8,%esp
  102c22:	57                   	push   %edi
  102c23:	ff 74 24 40          	pushl  0x40(%esp)
  102c27:	e8 84 09 00 00       	call   1035b0 <get_ptbl_entry_by_va>

		if ((uva_pa & PTE_P) == 0) {
  102c2c:	83 c4 10             	add    $0x10,%esp
  102c2f:	a8 01                	test   $0x1,%al
  102c31:	75 ad                	jne    102be0 <pt_copyout+0x45>
			alloc_page(pmap_id, uva, PTE_P | PTE_U | PTE_W);
  102c33:	83 ec 04             	sub    $0x4,%esp
  102c36:	6a 07                	push   $0x7
  102c38:	57                   	push   %edi
  102c39:	ff 74 24 40          	pushl  0x40(%esp)
  102c3d:	e8 4e 0d 00 00       	call   103990 <alloc_page>
			uva_pa = get_ptbl_entry_by_va(pmap_id, uva);
  102c42:	83 c4 08             	add    $0x8,%esp
  102c45:	57                   	push   %edi
  102c46:	ff 74 24 40          	pushl  0x40(%esp)
  102c4a:	e8 61 09 00 00       	call   1035b0 <get_ptbl_entry_by_va>
  102c4f:	83 c4 10             	add    $0x10,%esp
  102c52:	eb 8c                	jmp    102be0 <pt_copyout+0x45>

size_t
pt_copyout(void *kva, uint32_t pmap_id, uintptr_t uva, size_t len)
{
	if (!(VM_USERLO <= uva && uva + len <= VM_USERHI))
		return 0;
  102c54:	c7 44 24 0c 00 00 00 	movl   $0x0,0xc(%esp)
  102c5b:	00 
		kva += size;
		copied += size;
	}

	return copied;
}
  102c5c:	8b 44 24 0c          	mov    0xc(%esp),%eax
  102c60:	83 c4 1c             	add    $0x1c,%esp
  102c63:	5b                   	pop    %ebx
  102c64:	5e                   	pop    %esi
  102c65:	5f                   	pop    %edi
  102c66:	5d                   	pop    %ebp
  102c67:	c3                   	ret    

size_t
pt_copyout(void *kva, uint32_t pmap_id, uintptr_t uva, size_t len)
{
	if (!(VM_USERLO <= uva && uva + len <= VM_USERHI))
		return 0;
  102c68:	c7 44 24 0c 00 00 00 	movl   $0x0,0xc(%esp)
  102c6f:	00 
  102c70:	eb ea                	jmp    102c5c <pt_copyout+0xc1>

	if ((uintptr_t) kva + len > VM_USERHI)
		return 0;
  102c72:	c7 44 24 0c 00 00 00 	movl   $0x0,0xc(%esp)
  102c79:	00 
  102c7a:	eb e0                	jmp    102c5c <pt_copyout+0xc1>

00102c7c <pt_memset>:
	return copied;
}

size_t
pt_memset(uint32_t pmap_id, uintptr_t va, char c, size_t len)
{
  102c7c:	55                   	push   %ebp
  102c7d:	57                   	push   %edi
  102c7e:	56                   	push   %esi
  102c7f:	53                   	push   %ebx
  102c80:	83 ec 1c             	sub    $0x1c,%esp
  102c83:	8b 7c 24 34          	mov    0x34(%esp),%edi
  102c87:	8b 74 24 3c          	mov    0x3c(%esp),%esi
  102c8b:	0f b6 44 24 38       	movzbl 0x38(%esp),%eax
  102c90:	88 44 24 0f          	mov    %al,0xf(%esp)
        size_t set = 0;
  102c94:	bd 00 00 00 00       	mov    $0x0,%ebp

	while (len) {
  102c99:	eb 3c                	jmp    102cd7 <pt_memset+0x5b>
		if ((pa & PTE_P) == 0) {
			alloc_page(pmap_id, va, PTE_P | PTE_U | PTE_W);
			pa = get_ptbl_entry_by_va(pmap_id, va);
		}

		pa = (pa & 0xfffff000) + (va % PAGESIZE);
  102c9b:	25 00 f0 ff ff       	and    $0xfffff000,%eax
  102ca0:	89 fa                	mov    %edi,%edx
  102ca2:	81 e2 ff 0f 00 00    	and    $0xfff,%edx
  102ca8:	09 d0                	or     %edx,%eax

		size_t size = (len < PAGESIZE - pa % PAGESIZE) ?
			len : PAGESIZE - pa % PAGESIZE;
  102caa:	89 c2                	mov    %eax,%edx
  102cac:	81 e2 ff 0f 00 00    	and    $0xfff,%edx
  102cb2:	bb 00 10 00 00       	mov    $0x1000,%ebx
  102cb7:	29 d3                	sub    %edx,%ebx
			pa = get_ptbl_entry_by_va(pmap_id, va);
		}

		pa = (pa & 0xfffff000) + (va % PAGESIZE);

		size_t size = (len < PAGESIZE - pa % PAGESIZE) ?
  102cb9:	39 de                	cmp    %ebx,%esi
  102cbb:	0f 46 de             	cmovbe %esi,%ebx
			len : PAGESIZE - pa % PAGESIZE;

		memset((void *) pa, c, size);
  102cbe:	83 ec 04             	sub    $0x4,%esp
  102cc1:	53                   	push   %ebx
  102cc2:	0f be 54 24 17       	movsbl 0x17(%esp),%edx
  102cc7:	52                   	push   %edx
  102cc8:	50                   	push   %eax
  102cc9:	e8 6d ef ff ff       	call   101c3b <memset>

		len -= size;
  102cce:	29 de                	sub    %ebx,%esi
		va += size;
  102cd0:	01 df                	add    %ebx,%edi
		set += size;
  102cd2:	01 dd                	add    %ebx,%ebp
  102cd4:	83 c4 10             	add    $0x10,%esp
size_t
pt_memset(uint32_t pmap_id, uintptr_t va, char c, size_t len)
{
        size_t set = 0;

	while (len) {
  102cd7:	85 f6                	test   %esi,%esi
  102cd9:	74 35                	je     102d10 <pt_memset+0x94>
		uintptr_t pa = get_ptbl_entry_by_va(pmap_id, va);
  102cdb:	83 ec 08             	sub    $0x8,%esp
  102cde:	57                   	push   %edi
  102cdf:	ff 74 24 3c          	pushl  0x3c(%esp)
  102ce3:	e8 c8 08 00 00       	call   1035b0 <get_ptbl_entry_by_va>

		if ((pa & PTE_P) == 0) {
  102ce8:	83 c4 10             	add    $0x10,%esp
  102ceb:	a8 01                	test   $0x1,%al
  102ced:	75 ac                	jne    102c9b <pt_memset+0x1f>
			alloc_page(pmap_id, va, PTE_P | PTE_U | PTE_W);
  102cef:	83 ec 04             	sub    $0x4,%esp
  102cf2:	6a 07                	push   $0x7
  102cf4:	57                   	push   %edi
  102cf5:	ff 74 24 3c          	pushl  0x3c(%esp)
  102cf9:	e8 92 0c 00 00       	call   103990 <alloc_page>
			pa = get_ptbl_entry_by_va(pmap_id, va);
  102cfe:	83 c4 08             	add    $0x8,%esp
  102d01:	57                   	push   %edi
  102d02:	ff 74 24 3c          	pushl  0x3c(%esp)
  102d06:	e8 a5 08 00 00       	call   1035b0 <get_ptbl_entry_by_va>
  102d0b:	83 c4 10             	add    $0x10,%esp
  102d0e:	eb 8b                	jmp    102c9b <pt_memset+0x1f>
		va += size;
		set += size;
	}

	return set;
}
  102d10:	89 e8                	mov    %ebp,%eax
  102d12:	83 c4 1c             	add    $0x1c,%esp
  102d15:	5b                   	pop    %ebx
  102d16:	5e                   	pop    %esi
  102d17:	5f                   	pop    %edi
  102d18:	5d                   	pop    %ebp
  102d19:	c3                   	ret    

00102d1a <elf_load>:
/*
 * Load elf execution file exe to the virtual address space pmap.
 */
void
elf_load (void *exe_ptr, int pid)
{
  102d1a:	55                   	push   %ebp
  102d1b:	57                   	push   %edi
  102d1c:	56                   	push   %esi
  102d1d:	53                   	push   %ebx
  102d1e:	83 ec 2c             	sub    $0x2c,%esp
  102d21:	8b 5c 24 40          	mov    0x40(%esp),%ebx
  102d25:	8b 7c 24 44          	mov    0x44(%esp),%edi
	elfhdr *eh;
	proghdr *ph, *eph;
	sechdr *sh, *esh;
	char *strtab;
	uintptr_t exe = (uintptr_t) exe_ptr;
  102d29:	89 5c 24 1c          	mov    %ebx,0x1c(%esp)

	eh = (elfhdr *) exe;

	KERN_ASSERT(eh->e_magic == ELF_MAGIC);
  102d2d:	81 3b 7f 45 4c 46    	cmpl   $0x464c457f,(%ebx)
  102d33:	74 19                	je     102d4e <elf_load+0x34>
  102d35:	68 a4 53 10 00       	push   $0x1053a4
  102d3a:	68 77 4e 10 00       	push   $0x104e77
  102d3f:	6a 1e                	push   $0x1e
  102d41:	68 bd 53 10 00       	push   $0x1053bd
  102d46:	e8 ea f0 ff ff       	call   101e35 <debug_panic>
  102d4b:	83 c4 10             	add    $0x10,%esp
	KERN_ASSERT(eh->e_shstrndx != ELF_SHN_UNDEF);
  102d4e:	66 83 7b 32 00       	cmpw   $0x0,0x32(%ebx)
  102d53:	74 4c                	je     102da1 <elf_load+0x87>

	sh = (sechdr *) ((uintptr_t) eh + eh->e_shoff);
  102d55:	89 d9                	mov    %ebx,%ecx
  102d57:	03 4b 20             	add    0x20(%ebx),%ecx
	esh = sh + eh->e_shnum;

	strtab = (char *) (exe + sh[eh->e_shstrndx].sh_offset);
  102d5a:	0f b7 43 32          	movzwl 0x32(%ebx),%eax
  102d5e:	8d 14 80             	lea    (%eax,%eax,4),%edx
  102d61:	8d 04 d5 00 00 00 00 	lea    0x0(,%edx,8),%eax
	KERN_ASSERT(sh[eh->e_shstrndx].sh_type == ELF_SHT_STRTAB);
  102d68:	83 7c 01 04 03       	cmpl   $0x3,0x4(%ecx,%eax,1)
  102d6d:	74 19                	je     102d88 <elf_load+0x6e>
  102d6f:	68 ec 53 10 00       	push   $0x1053ec
  102d74:	68 77 4e 10 00       	push   $0x104e77
  102d79:	6a 25                	push   $0x25
  102d7b:	68 bd 53 10 00       	push   $0x1053bd
  102d80:	e8 b0 f0 ff ff       	call   101e35 <debug_panic>
  102d85:	83 c4 10             	add    $0x10,%esp

	ph = (proghdr *) ((uintptr_t) eh + eh->e_phoff);
  102d88:	89 da                	mov    %ebx,%edx
  102d8a:	03 53 1c             	add    0x1c(%ebx),%edx
  102d8d:	89 d5                	mov    %edx,%ebp
	eph = ph + eh->e_phnum;
  102d8f:	0f b7 43 2c          	movzwl 0x2c(%ebx),%eax
  102d93:	c1 e0 05             	shl    $0x5,%eax
  102d96:	01 d0                	add    %edx,%eax
  102d98:	89 44 24 10          	mov    %eax,0x10(%esp)

	for (; ph < eph; ph++)
  102d9c:	e9 ba 00 00 00       	jmp    102e5b <elf_load+0x141>
	uintptr_t exe = (uintptr_t) exe_ptr;

	eh = (elfhdr *) exe;

	KERN_ASSERT(eh->e_magic == ELF_MAGIC);
	KERN_ASSERT(eh->e_shstrndx != ELF_SHN_UNDEF);
  102da1:	68 cc 53 10 00       	push   $0x1053cc
  102da6:	68 77 4e 10 00       	push   $0x104e77
  102dab:	6a 1f                	push   $0x1f
  102dad:	68 bd 53 10 00       	push   $0x1053bd
  102db2:	e8 7e f0 ff ff       	call   101e35 <debug_panic>
  102db7:	83 c4 10             	add    $0x10,%esp
  102dba:	eb 99                	jmp    102d55 <elf_load+0x3b>
		zva = ph->p_va + ph->p_filesz;
		eva = roundup (ph->p_va + ph->p_memsz, PAGESIZE);

		perm = PTE_U | PTE_P;
		if (ph->p_flags & ELF_PROG_FLAG_WRITE)
			perm |= PTE_W;
  102dbc:	c7 44 24 0c 07 00 00 	movl   $0x7,0xc(%esp)
  102dc3:	00 
  102dc4:	89 6c 24 14          	mov    %ebp,0x14(%esp)
  102dc8:	8b 6c 24 18          	mov    0x18(%esp),%ebp
  102dcc:	eb 2f                	jmp    102dfd <elf_load+0xe3>
			alloc_page (pid, va, perm);

			if (va < rounddown (zva, PAGESIZE))
			{
				/* copy a complete page */
				pt_copyout ((void *) fa, pid, va, PAGESIZE);
  102dce:	68 00 10 00 00       	push   $0x1000
  102dd3:	53                   	push   %ebx
  102dd4:	57                   	push   %edi
  102dd5:	56                   	push   %esi
  102dd6:	e8 c0 fd ff ff       	call   102b9b <pt_copyout>
  102ddb:	83 c4 10             	add    $0x10,%esp
  102dde:	eb 11                	jmp    102df1 <elf_load+0xd7>
				pt_copyout ((void *) fa, pid, va, zva - va);
			}
			else
			{
				/* zero a page */
				pt_memset (pid, va, 0, PAGESIZE);
  102de0:	68 00 10 00 00       	push   $0x1000
  102de5:	6a 00                	push   $0x0
  102de7:	53                   	push   %ebx
  102de8:	57                   	push   %edi
  102de9:	e8 8e fe ff ff       	call   102c7c <pt_memset>
  102dee:	83 c4 10             	add    $0x10,%esp

		perm = PTE_U | PTE_P;
		if (ph->p_flags & ELF_PROG_FLAG_WRITE)
			perm |= PTE_W;

		for (; va < eva; va += PAGESIZE, fa += PAGESIZE)
  102df1:	81 c3 00 10 00 00    	add    $0x1000,%ebx
  102df7:	81 c6 00 10 00 00    	add    $0x1000,%esi
  102dfd:	3b 5c 24 08          	cmp    0x8(%esp),%ebx
  102e01:	73 51                	jae    102e54 <elf_load+0x13a>
		{
			alloc_page (pid, va, perm);
  102e03:	83 ec 04             	sub    $0x4,%esp
  102e06:	ff 74 24 10          	pushl  0x10(%esp)
  102e0a:	53                   	push   %ebx
  102e0b:	57                   	push   %edi
  102e0c:	e8 7f 0b 00 00       	call   103990 <alloc_page>

			if (va < rounddown (zva, PAGESIZE))
  102e11:	83 c4 08             	add    $0x8,%esp
  102e14:	68 00 10 00 00       	push   $0x1000
  102e19:	55                   	push   %ebp
  102e1a:	e8 ba f8 ff ff       	call   1026d9 <rounddown>
  102e1f:	83 c4 10             	add    $0x10,%esp
  102e22:	39 c3                	cmp    %eax,%ebx
  102e24:	72 a8                	jb     102dce <elf_load+0xb4>
			{
				/* copy a complete page */
				pt_copyout ((void *) fa, pid, va, PAGESIZE);
			}
			else if (va < zva && ph->p_filesz)
  102e26:	39 eb                	cmp    %ebp,%ebx
  102e28:	73 b6                	jae    102de0 <elf_load+0xc6>
  102e2a:	8b 44 24 14          	mov    0x14(%esp),%eax
  102e2e:	83 78 10 00          	cmpl   $0x0,0x10(%eax)
  102e32:	74 ac                	je     102de0 <elf_load+0xc6>
			{
				/* copy a partial page */
				pt_memset (pid, va, 0, PAGESIZE);
  102e34:	68 00 10 00 00       	push   $0x1000
  102e39:	6a 00                	push   $0x0
  102e3b:	53                   	push   %ebx
  102e3c:	57                   	push   %edi
  102e3d:	e8 3a fe ff ff       	call   102c7c <pt_memset>
				pt_copyout ((void *) fa, pid, va, zva - va);
  102e42:	89 e8                	mov    %ebp,%eax
  102e44:	29 d8                	sub    %ebx,%eax
  102e46:	50                   	push   %eax
  102e47:	53                   	push   %ebx
  102e48:	57                   	push   %edi
  102e49:	56                   	push   %esi
  102e4a:	e8 4c fd ff ff       	call   102b9b <pt_copyout>
  102e4f:	83 c4 20             	add    $0x20,%esp
  102e52:	eb 9d                	jmp    102df1 <elf_load+0xd7>
  102e54:	8b 6c 24 14          	mov    0x14(%esp),%ebp
	KERN_ASSERT(sh[eh->e_shstrndx].sh_type == ELF_SHT_STRTAB);

	ph = (proghdr *) ((uintptr_t) eh + eh->e_phoff);
	eph = ph + eh->e_phnum;

	for (; ph < eph; ph++)
  102e58:	83 c5 20             	add    $0x20,%ebp
  102e5b:	3b 6c 24 10          	cmp    0x10(%esp),%ebp
  102e5f:	73 72                	jae    102ed3 <elf_load+0x1b9>
	{
		uintptr_t fa;
		uint32_t va, zva, eva, perm;

		if (ph->p_type != ELF_PROG_LOAD)
  102e61:	83 7d 00 01          	cmpl   $0x1,0x0(%ebp)
  102e65:	75 f1                	jne    102e58 <elf_load+0x13e>
			continue;

		fa = (uintptr_t) eh + rounddown (ph->p_offset, PAGESIZE);
  102e67:	83 ec 08             	sub    $0x8,%esp
  102e6a:	68 00 10 00 00       	push   $0x1000
  102e6f:	ff 75 04             	pushl  0x4(%ebp)
  102e72:	e8 62 f8 ff ff       	call   1026d9 <rounddown>
  102e77:	8b 54 24 2c          	mov    0x2c(%esp),%edx
  102e7b:	8d 34 02             	lea    (%edx,%eax,1),%esi
		va = rounddown (ph->p_va, PAGESIZE);
  102e7e:	83 c4 08             	add    $0x8,%esp
  102e81:	68 00 10 00 00       	push   $0x1000
  102e86:	ff 75 08             	pushl  0x8(%ebp)
  102e89:	e8 4b f8 ff ff       	call   1026d9 <rounddown>
  102e8e:	89 c3                	mov    %eax,%ebx
		zva = ph->p_va + ph->p_filesz;
  102e90:	8b 45 08             	mov    0x8(%ebp),%eax
  102e93:	89 c1                	mov    %eax,%ecx
  102e95:	03 4d 10             	add    0x10(%ebp),%ecx
  102e98:	89 4c 24 28          	mov    %ecx,0x28(%esp)
		eva = roundup (ph->p_va + ph->p_memsz, PAGESIZE);
  102e9c:	03 45 14             	add    0x14(%ebp),%eax
  102e9f:	83 c4 08             	add    $0x8,%esp
  102ea2:	68 00 10 00 00       	push   $0x1000
  102ea7:	50                   	push   %eax
  102ea8:	e8 40 f8 ff ff       	call   1026ed <roundup>
  102ead:	89 44 24 18          	mov    %eax,0x18(%esp)

		perm = PTE_U | PTE_P;
		if (ph->p_flags & ELF_PROG_FLAG_WRITE)
  102eb1:	83 c4 10             	add    $0x10,%esp
  102eb4:	f6 45 18 02          	testb  $0x2,0x18(%ebp)
  102eb8:	0f 85 fe fe ff ff    	jne    102dbc <elf_load+0xa2>
		fa = (uintptr_t) eh + rounddown (ph->p_offset, PAGESIZE);
		va = rounddown (ph->p_va, PAGESIZE);
		zva = ph->p_va + ph->p_filesz;
		eva = roundup (ph->p_va + ph->p_memsz, PAGESIZE);

		perm = PTE_U | PTE_P;
  102ebe:	c7 44 24 0c 05 00 00 	movl   $0x5,0xc(%esp)
  102ec5:	00 
  102ec6:	89 6c 24 14          	mov    %ebp,0x14(%esp)
  102eca:	8b 6c 24 18          	mov    0x18(%esp),%ebp
  102ece:	e9 2a ff ff ff       	jmp    102dfd <elf_load+0xe3>
				pt_memset (pid, va, 0, PAGESIZE);
			}
		}
	}

}
  102ed3:	83 c4 2c             	add    $0x2c,%esp
  102ed6:	5b                   	pop    %ebx
  102ed7:	5e                   	pop    %esi
  102ed8:	5f                   	pop    %edi
  102ed9:	5d                   	pop    %ebp
  102eda:	c3                   	ret    

00102edb <elf_entry>:

uintptr_t
elf_entry (void *exe_ptr)
{
  102edb:	53                   	push   %ebx
  102edc:	83 ec 08             	sub    $0x8,%esp
  102edf:	8b 5c 24 10          	mov    0x10(%esp),%ebx
	uintptr_t exe = (uintptr_t) exe_ptr;
	elfhdr *eh = (elfhdr *) exe;
	KERN_ASSERT(eh->e_magic == ELF_MAGIC);
  102ee3:	81 3b 7f 45 4c 46    	cmpl   $0x464c457f,(%ebx)
  102ee9:	74 19                	je     102f04 <elf_entry+0x29>
  102eeb:	68 a4 53 10 00       	push   $0x1053a4
  102ef0:	68 77 4e 10 00       	push   $0x104e77
  102ef5:	6a 59                	push   $0x59
  102ef7:	68 bd 53 10 00       	push   $0x1053bd
  102efc:	e8 34 ef ff ff       	call   101e35 <debug_panic>
  102f01:	83 c4 10             	add    $0x10,%esp
	return (uintptr_t) eh->e_entry;
  102f04:	8b 43 18             	mov    0x18(%ebx),%eax
}
  102f07:	83 c4 08             	add    $0x8,%esp
  102f0a:	5b                   	pop    %ebx
  102f0b:	c3                   	ret    
  102f0c:	66 90                	xchg   %ax,%ax
  102f0e:	66 90                	xchg   %ax,%ax

00102f10 <kern_init>:
    #endif
}

void
kern_init (uintptr_t mbi_addr)
{
  102f10:	83 ec 18             	sub    $0x18,%esp
    thread_init(mbi_addr);
  102f13:	ff 74 24 1c          	pushl  0x1c(%esp)
  102f17:	e8 44 0f 00 00       	call   103e60 <thread_init>

    KERN_DEBUG("Kernel initialized.\n");
  102f1c:	83 c4 0c             	add    $0xc,%esp
  102f1f:	68 19 54 10 00       	push   $0x105419
  102f24:	6a 39                	push   $0x39
  102f26:	68 2e 54 10 00       	push   $0x10542e
  102f2b:	e8 db ee ff ff       	call   101e0b <debug_normal>
#endif

static void
kern_main (void)
{
    KERN_DEBUG("In kernel main.\n\n");
  102f30:	83 c4 0c             	add    $0xc,%esp
  102f33:	68 3f 54 10 00       	push   $0x10543f
  102f38:	6a 10                	push   $0x10
  102f3a:	68 2e 54 10 00       	push   $0x10542e
  102f3f:	e8 c7 ee ff ff       	call   101e0b <debug_normal>
    else
      dprintf("Test failed.\n");
    dprintf("\n");
    dprintf("\nTest complete. Please Use Ctrl-a x to exit qemu.");
    #else
    monitor(NULL);
  102f44:	c7 44 24 20 00 00 00 	movl   $0x0,0x20(%esp)
  102f4b:	00 
    thread_init(mbi_addr);

    KERN_DEBUG("Kernel initialized.\n");

    kern_main ();
}
  102f4c:	83 c4 1c             	add    $0x1c,%esp
    else
      dprintf("Test failed.\n");
    dprintf("\n");
    dprintf("\nTest complete. Please Use Ctrl-a x to exit qemu.");
    #else
    monitor(NULL);
  102f4f:	e9 09 fb ff ff       	jmp    102a5d <monitor>
  102f54:	02 b0 ad 1b 03 00    	add    0x31bad(%eax),%dh
  102f5a:	00 00                	add    %al,(%eax)
  102f5c:	fb                   	sti    
  102f5d:	4f                   	dec    %edi
  102f5e:	52                   	push   %edx
  102f5f:	e4                   	.byte 0xe4

00102f60 <start>:
	.long	CHECKSUM

	/* this is the entry of the kernel */
	.globl	start
start:
	cli
  102f60:	fa                   	cli    

	/* check whether the bootloader provide multiboot information */
	cmpl    $MULTIBOOT_BOOTLOADER_MAGIC, %eax
  102f61:	3d 02 b0 ad 2b       	cmp    $0x2badb002,%eax
	jne     spin
  102f66:	75 27                	jne    102f8f <spin>
	movl	%ebx, multiboot_ptr
  102f68:	89 1d 90 2f 10 00    	mov    %ebx,0x102f90

	/* tell BIOS to warmboot next time */
	movw	$0x1234,0x472
  102f6e:	66 c7 05 72 04 00 00 	movw   $0x1234,0x472
  102f75:	34 12 

	/* clear EFLAGS */
